ARM GAS  C:\Users\VD1800~1\AppData\Local\Temp\cce82BKa.s 			page 1


   1              		.cpu cortex-m3
   2              		.eabi_attribute 20, 1
   3              		.eabi_attribute 21, 1
   4              		.eabi_attribute 23, 3
   5              		.eabi_attribute 24, 1
   6              		.eabi_attribute 25, 1
   7              		.eabi_attribute 26, 1
   8              		.eabi_attribute 30, 1
   9              		.eabi_attribute 34, 1
  10              		.eabi_attribute 18, 4
  11              		.file	"stm32f1xx_hal_dma.c"
  12              		.text
  13              	.Ltext0:
  14              		.cfi_sections	.debug_frame
  15              		.section	.text.DMA_SetConfig,"ax",%progbits
  16              		.align	1
  17              		.arch armv7-m
  18              		.syntax unified
  19              		.thumb
  20              		.thumb_func
  21              		.fpu softvfp
  23              	DMA_SetConfig:
  24              	.LVL0:
  25              	.LFB77:
  26              		.file 1 "../Drivers/STM32F1xx_HAL_Driver/Src/stm32f1xx_hal_dma.c"
   1:../Drivers/STM32F1xx_HAL_Driver/Src/stm32f1xx_hal_dma.c **** 
  27              		.loc 1 859 1 view -0
  28              		.cfi_startproc
  29              		@ args = 0, pretend = 0, frame = 0
  30              		@ frame_needed = 0, uses_anonymous_args = 0
  31              		@ link register save eliminated.
  32              		.loc 1 859 1 is_stmt 0 view .LVU1
  33 0000 30B4     		push	{r4, r5}
  34              	.LCFI0:
  35              		.cfi_def_cfa_offset 8
  36              		.cfi_offset 4, -8
  37              		.cfi_offset 5, -4
  38              		.loc 1 861 3 is_stmt 1 view .LVU2
  39              		.loc 1 861 46 is_stmt 0 view .LVU3
  40 0002 0124     		movs	r4, #1
  41 0004 056C     		ldr	r5, [r0, #64]
  42 0006 AC40     		lsls	r4, r4, r5
  43              		.loc 1 861 30 view .LVU4
  44 0008 C56B     		ldr	r5, [r0, #60]
  45 000a 6C60     		str	r4, [r5, #4]
  46              		.loc 1 864 3 is_stmt 1 view .LVU5
  47              		.loc 1 864 7 is_stmt 0 view .LVU6
  48 000c 0468     		ldr	r4, [r0]
  49              		.loc 1 864 25 view .LVU7
  50 000e 6360     		str	r3, [r4, #4]
  51              		.loc 1 867 3 is_stmt 1 view .LVU8
  52              		.loc 1 867 17 is_stmt 0 view .LVU9
  53 0010 4368     		ldr	r3, [r0, #4]
  54              	.LVL1:
  55              		.loc 1 867 5 view .LVU10
  56 0012 102B     		cmp	r3, #16
  57 0014 05D0     		beq	.L5
ARM GAS  C:\Users\VD1800~1\AppData\Local\Temp\cce82BKa.s 			page 2


  58              		.loc 1 879 5 is_stmt 1 view .LVU11
  59              		.loc 1 879 9 is_stmt 0 view .LVU12
  60 0016 0368     		ldr	r3, [r0]
  61              		.loc 1 879 26 view .LVU13
  62 0018 9960     		str	r1, [r3, #8]
  63              	.LVL2:
  64              		.loc 1 882 5 is_stmt 1 view .LVU14
  65              		.loc 1 882 9 is_stmt 0 view .LVU15
  66 001a 0368     		ldr	r3, [r0]
  67              		.loc 1 882 26 view .LVU16
  68 001c DA60     		str	r2, [r3, #12]
  69              	.L1:
  70              		.loc 1 884 1 view .LVU17
  71 001e 30BC     		pop	{r4, r5}
  72              	.LCFI1:
  73              		.cfi_remember_state
  74              		.cfi_restore 5
  75              		.cfi_restore 4
  76              		.cfi_def_cfa_offset 0
  77 0020 7047     		bx	lr
  78              	.LVL3:
  79              	.L5:
  80              	.LCFI2:
  81              		.cfi_restore_state
  82              		.loc 1 870 5 is_stmt 1 view .LVU18
  83              		.loc 1 870 9 is_stmt 0 view .LVU19
  84 0022 0368     		ldr	r3, [r0]
  85              		.loc 1 870 26 view .LVU20
  86 0024 9A60     		str	r2, [r3, #8]
  87              	.LVL4:
  88              		.loc 1 873 5 is_stmt 1 view .LVU21
  89              		.loc 1 873 9 is_stmt 0 view .LVU22
  90 0026 0368     		ldr	r3, [r0]
  91              		.loc 1 873 26 view .LVU23
  92 0028 D960     		str	r1, [r3, #12]
  93 002a F8E7     		b	.L1
  94              		.cfi_endproc
  95              	.LFE77:
  97              		.section	.text.HAL_DMA_Init,"ax",%progbits
  98              		.align	1
  99              		.global	HAL_DMA_Init
 100              		.syntax unified
 101              		.thumb
 102              		.thumb_func
 103              		.fpu softvfp
 105              	HAL_DMA_Init:
 106              	.LVL5:
 107              	.LFB65:
 108              		.loc 1 144 1 is_stmt 1 view -0
 109              		.cfi_startproc
 110              		@ args = 0, pretend = 0, frame = 0
 111              		@ frame_needed = 0, uses_anonymous_args = 0
 112              		@ link register save eliminated.
 113              		.loc 1 145 3 view .LVU25
 114              		.loc 1 148 3 view .LVU26
 115              		.loc 1 148 5 is_stmt 0 view .LVU27
 116 0000 60B3     		cbz	r0, .L8
ARM GAS  C:\Users\VD1800~1\AppData\Local\Temp\cce82BKa.s 			page 3


 117              		.loc 1 144 1 view .LVU28
 118 0002 10B4     		push	{r4}
 119              	.LCFI3:
 120              		.cfi_def_cfa_offset 4
 121              		.cfi_offset 4, -4
 122 0004 0246     		mov	r2, r0
 123              		.loc 1 154 3 is_stmt 1 view .LVU29
 124              		.loc 1 155 3 view .LVU30
 125              		.loc 1 156 3 view .LVU31
 126              		.loc 1 157 3 view .LVU32
 127              		.loc 1 158 3 view .LVU33
 128              		.loc 1 159 3 view .LVU34
 129              		.loc 1 160 3 view .LVU35
 130              		.loc 1 161 3 view .LVU36
 131              		.loc 1 179 3 view .LVU37
 132              		.loc 1 179 40 is_stmt 0 view .LVU38
 133 0006 0168     		ldr	r1, [r0]
 134              		.loc 1 179 51 view .LVU39
 135 0008 154B     		ldr	r3, .L13
 136 000a 0B44     		add	r3, r3, r1
 137              		.loc 1 179 78 view .LVU40
 138 000c 1548     		ldr	r0, .L13+4
 139              	.LVL6:
 140              		.loc 1 179 78 view .LVU41
 141 000e A0FB0303 		umull	r0, r3, r0, r3
 142 0012 1B09     		lsrs	r3, r3, #4
 143              		.loc 1 179 133 view .LVU42
 144 0014 9B00     		lsls	r3, r3, #2
 145              		.loc 1 179 22 view .LVU43
 146 0016 1364     		str	r3, [r2, #64]
 147              		.loc 1 180 3 is_stmt 1 view .LVU44
 148              		.loc 1 180 24 is_stmt 0 view .LVU45
 149 0018 134B     		ldr	r3, .L13+8
 150 001a D363     		str	r3, [r2, #60]
 151              		.loc 1 184 3 is_stmt 1 view .LVU46
 152              		.loc 1 184 15 is_stmt 0 view .LVU47
 153 001c 0223     		movs	r3, #2
 154 001e 82F82130 		strb	r3, [r2, #33]
 155              		.loc 1 187 3 is_stmt 1 view .LVU48
 156              		.loc 1 187 7 is_stmt 0 view .LVU49
 157 0022 0868     		ldr	r0, [r1]
 158              	.LVL7:
 159              		.loc 1 190 3 is_stmt 1 view .LVU50
 160              		.loc 1 190 7 is_stmt 0 view .LVU51
 161 0024 20F47F50 		bic	r0, r0, #16320
 162              	.LVL8:
 163              		.loc 1 190 7 view .LVU52
 164 0028 20F03000 		bic	r0, r0, #48
 165              	.LVL9:
 166              		.loc 1 195 3 is_stmt 1 view .LVU53
 167              		.loc 1 195 21 is_stmt 0 view .LVU54
 168 002c 5368     		ldr	r3, [r2, #4]
 169              		.loc 1 195 39 view .LVU55
 170 002e 9468     		ldr	r4, [r2, #8]
 171 0030 2343     		orrs	r3, r3, r4
 172              		.loc 1 196 42 view .LVU56
 173 0032 D468     		ldr	r4, [r2, #12]
ARM GAS  C:\Users\VD1800~1\AppData\Local\Temp\cce82BKa.s 			page 4


 174 0034 2343     		orrs	r3, r3, r4
 175              		.loc 1 196 72 view .LVU57
 176 0036 1469     		ldr	r4, [r2, #16]
 177 0038 2343     		orrs	r3, r3, r4
 178              		.loc 1 197 42 view .LVU58
 179 003a 5469     		ldr	r4, [r2, #20]
 180 003c 2343     		orrs	r3, r3, r4
 181              		.loc 1 197 72 view .LVU59
 182 003e 9469     		ldr	r4, [r2, #24]
 183 0040 2343     		orrs	r3, r3, r4
 184              		.loc 1 198 42 view .LVU60
 185 0042 D469     		ldr	r4, [r2, #28]
 186 0044 2343     		orrs	r3, r3, r4
 187              		.loc 1 195 7 view .LVU61
 188 0046 0343     		orrs	r3, r3, r0
 189              	.LVL10:
 190              		.loc 1 201 3 is_stmt 1 view .LVU62
 191              		.loc 1 201 23 is_stmt 0 view .LVU63
 192 0048 0B60     		str	r3, [r1]
 193              		.loc 1 204 3 is_stmt 1 view .LVU64
 194              		.loc 1 204 19 is_stmt 0 view .LVU65
 195 004a 0020     		movs	r0, #0
 196 004c 9063     		str	r0, [r2, #56]
 197              		.loc 1 207 3 is_stmt 1 view .LVU66
 198              		.loc 1 207 15 is_stmt 0 view .LVU67
 199 004e 0123     		movs	r3, #1
 200              	.LVL11:
 201              		.loc 1 207 15 view .LVU68
 202 0050 82F82130 		strb	r3, [r2, #33]
 203              		.loc 1 209 3 is_stmt 1 view .LVU69
 204              		.loc 1 209 14 is_stmt 0 view .LVU70
 205 0054 82F82000 		strb	r0, [r2, #32]
 206              		.loc 1 211 3 is_stmt 1 view .LVU71
 207              		.loc 1 212 1 is_stmt 0 view .LVU72
 208 0058 10BC     		pop	{r4}
 209              	.LCFI4:
 210              		.cfi_restore 4
 211              		.cfi_def_cfa_offset 0
 212 005a 7047     		bx	lr
 213              	.LVL12:
 214              	.L8:
 215              		.loc 1 150 12 view .LVU73
 216 005c 0120     		movs	r0, #1
 217              	.LVL13:
 218              		.loc 1 212 1 view .LVU74
 219 005e 7047     		bx	lr
 220              	.L14:
 221              		.align	2
 222              	.L13:
 223 0060 F8FFFDBF 		.word	-1073872904
 224 0064 CDCCCCCC 		.word	-858993459
 225 0068 00000240 		.word	1073872896
 226              		.cfi_endproc
 227              	.LFE65:
 229              		.section	.text.HAL_DMA_DeInit,"ax",%progbits
 230              		.align	1
 231              		.global	HAL_DMA_DeInit
ARM GAS  C:\Users\VD1800~1\AppData\Local\Temp\cce82BKa.s 			page 5


 232              		.syntax unified
 233              		.thumb
 234              		.thumb_func
 235              		.fpu softvfp
 237              	HAL_DMA_DeInit:
 238              	.LVL14:
 239              	.LFB66:
 240              		.loc 1 221 1 is_stmt 1 view -0
 241              		.cfi_startproc
 242              		@ args = 0, pretend = 0, frame = 0
 243              		@ frame_needed = 0, uses_anonymous_args = 0
 244              		@ link register save eliminated.
 245              		.loc 1 223 3 view .LVU76
 246              		.loc 1 223 5 is_stmt 0 view .LVU77
 247 0000 0028     		cmp	r0, #0
 248 0002 29D0     		beq	.L17
 249              		.loc 1 221 1 view .LVU78
 250 0004 10B4     		push	{r4}
 251              	.LCFI5:
 252              		.cfi_def_cfa_offset 4
 253              		.cfi_offset 4, -4
 254 0006 0346     		mov	r3, r0
 255              		.loc 1 229 3 is_stmt 1 view .LVU79
 256              		.loc 1 232 3 view .LVU80
 257 0008 0168     		ldr	r1, [r0]
 258 000a 0A68     		ldr	r2, [r1]
 259 000c 22F00102 		bic	r2, r2, #1
 260 0010 0A60     		str	r2, [r1]
 261              		.loc 1 235 3 view .LVU81
 262              		.loc 1 235 7 is_stmt 0 view .LVU82
 263 0012 0268     		ldr	r2, [r0]
 264              		.loc 1 235 24 view .LVU83
 265 0014 0020     		movs	r0, #0
 266              	.LVL15:
 267              		.loc 1 235 24 view .LVU84
 268 0016 1060     		str	r0, [r2]
 269              		.loc 1 238 3 is_stmt 1 view .LVU85
 270              		.loc 1 238 7 is_stmt 0 view .LVU86
 271 0018 1A68     		ldr	r2, [r3]
 272              		.loc 1 238 25 view .LVU87
 273 001a 5060     		str	r0, [r2, #4]
 274              		.loc 1 241 3 is_stmt 1 view .LVU88
 275              		.loc 1 241 7 is_stmt 0 view .LVU89
 276 001c 1A68     		ldr	r2, [r3]
 277              		.loc 1 241 25 view .LVU90
 278 001e 9060     		str	r0, [r2, #8]
 279              		.loc 1 244 3 is_stmt 1 view .LVU91
 280              		.loc 1 244 7 is_stmt 0 view .LVU92
 281 0020 1A68     		ldr	r2, [r3]
 282              		.loc 1 244 24 view .LVU93
 283 0022 D060     		str	r0, [r2, #12]
 284              		.loc 1 262 3 is_stmt 1 view .LVU94
 285              		.loc 1 262 40 is_stmt 0 view .LVU95
 286 0024 1968     		ldr	r1, [r3]
 287              		.loc 1 262 51 view .LVU96
 288 0026 0D4A     		ldr	r2, .L22
 289 0028 0A44     		add	r2, r2, r1
ARM GAS  C:\Users\VD1800~1\AppData\Local\Temp\cce82BKa.s 			page 6


 290              		.loc 1 262 78 view .LVU97
 291 002a 0D49     		ldr	r1, .L22+4
 292 002c A1FB0212 		umull	r1, r2, r1, r2
 293 0030 1209     		lsrs	r2, r2, #4
 294              		.loc 1 262 133 view .LVU98
 295 0032 9200     		lsls	r2, r2, #2
 296              		.loc 1 262 22 view .LVU99
 297 0034 1A64     		str	r2, [r3, #64]
 298              		.loc 1 263 3 is_stmt 1 view .LVU100
 299              		.loc 1 263 24 is_stmt 0 view .LVU101
 300 0036 0B4C     		ldr	r4, .L22+8
 301 0038 DC63     		str	r4, [r3, #60]
 302              		.loc 1 267 3 is_stmt 1 view .LVU102
 303              		.loc 1 267 46 is_stmt 0 view .LVU103
 304 003a 0121     		movs	r1, #1
 305 003c 01FA02F2 		lsl	r2, r1, r2
 306              		.loc 1 267 30 view .LVU104
 307 0040 6260     		str	r2, [r4, #4]
 308              		.loc 1 270 3 is_stmt 1 view .LVU105
 309              		.loc 1 270 26 is_stmt 0 view .LVU106
 310 0042 9862     		str	r0, [r3, #40]
 311              		.loc 1 271 3 is_stmt 1 view .LVU107
 312              		.loc 1 271 30 is_stmt 0 view .LVU108
 313 0044 D862     		str	r0, [r3, #44]
 314              		.loc 1 272 3 is_stmt 1 view .LVU109
 315              		.loc 1 272 27 is_stmt 0 view .LVU110
 316 0046 1863     		str	r0, [r3, #48]
 317              		.loc 1 273 3 is_stmt 1 view .LVU111
 318              		.loc 1 273 27 is_stmt 0 view .LVU112
 319 0048 5863     		str	r0, [r3, #52]
 320              		.loc 1 276 3 is_stmt 1 view .LVU113
 321              		.loc 1 276 19 is_stmt 0 view .LVU114
 322 004a 9863     		str	r0, [r3, #56]
 323              		.loc 1 279 3 is_stmt 1 view .LVU115
 324              		.loc 1 279 15 is_stmt 0 view .LVU116
 325 004c 83F82100 		strb	r0, [r3, #33]
 326              		.loc 1 282 3 is_stmt 1 view .LVU117
 327              		.loc 1 282 3 view .LVU118
 328 0050 83F82000 		strb	r0, [r3, #32]
 329              		.loc 1 282 3 view .LVU119
 330              		.loc 1 284 3 view .LVU120
 331              		.loc 1 285 1 is_stmt 0 view .LVU121
 332 0054 10BC     		pop	{r4}
 333              	.LCFI6:
 334              		.cfi_restore 4
 335              		.cfi_def_cfa_offset 0
 336 0056 7047     		bx	lr
 337              	.LVL16:
 338              	.L17:
 339              		.loc 1 225 12 view .LVU122
 340 0058 0120     		movs	r0, #1
 341              	.LVL17:
 342              		.loc 1 285 1 view .LVU123
 343 005a 7047     		bx	lr
 344              	.L23:
 345              		.align	2
 346              	.L22:
ARM GAS  C:\Users\VD1800~1\AppData\Local\Temp\cce82BKa.s 			page 7


 347 005c F8FFFDBF 		.word	-1073872904
 348 0060 CDCCCCCC 		.word	-858993459
 349 0064 00000240 		.word	1073872896
 350              		.cfi_endproc
 351              	.LFE66:
 353              		.section	.text.HAL_DMA_Start,"ax",%progbits
 354              		.align	1
 355              		.global	HAL_DMA_Start
 356              		.syntax unified
 357              		.thumb
 358              		.thumb_func
 359              		.fpu softvfp
 361              	HAL_DMA_Start:
 362              	.LVL18:
 363              	.LFB67:
 364              		.loc 1 320 1 is_stmt 1 view -0
 365              		.cfi_startproc
 366              		@ args = 0, pretend = 0, frame = 0
 367              		@ frame_needed = 0, uses_anonymous_args = 0
 368              		.loc 1 320 1 is_stmt 0 view .LVU125
 369 0000 70B5     		push	{r4, r5, r6, lr}
 370              	.LCFI7:
 371              		.cfi_def_cfa_offset 16
 372              		.cfi_offset 4, -16
 373              		.cfi_offset 5, -12
 374              		.cfi_offset 6, -8
 375              		.cfi_offset 14, -4
 376 0002 0446     		mov	r4, r0
 377              		.loc 1 321 3 is_stmt 1 view .LVU126
 378              	.LVL19:
 379              		.loc 1 324 3 view .LVU127
 380              		.loc 1 327 3 view .LVU128
 381              		.loc 1 327 3 view .LVU129
 382 0004 90F82000 		ldrb	r0, [r0, #32]	@ zero_extendqisi2
 383              	.LVL20:
 384              		.loc 1 327 3 is_stmt 0 view .LVU130
 385 0008 0128     		cmp	r0, #1
 386 000a 1FD0     		beq	.L27
 387              		.loc 1 327 3 is_stmt 1 discriminator 2 view .LVU131
 388 000c 0120     		movs	r0, #1
 389 000e 84F82000 		strb	r0, [r4, #32]
 390              		.loc 1 327 3 discriminator 2 view .LVU132
 391              		.loc 1 329 3 discriminator 2 view .LVU133
 392              		.loc 1 329 33 is_stmt 0 discriminator 2 view .LVU134
 393 0012 94F82100 		ldrb	r0, [r4, #33]	@ zero_extendqisi2
 394              		.loc 1 329 5 discriminator 2 view .LVU135
 395 0016 0128     		cmp	r0, #1
 396 0018 04D0     		beq	.L29
 397              		.loc 1 347 4 is_stmt 1 view .LVU136
 398              		.loc 1 347 4 view .LVU137
 399 001a 0023     		movs	r3, #0
 400              	.LVL21:
 401              		.loc 1 347 4 is_stmt 0 view .LVU138
 402 001c 84F82030 		strb	r3, [r4, #32]
 403              		.loc 1 347 4 is_stmt 1 view .LVU139
 404              		.loc 1 348 4 view .LVU140
 405              	.LVL22:
ARM GAS  C:\Users\VD1800~1\AppData\Local\Temp\cce82BKa.s 			page 8


 406              		.loc 1 348 11 is_stmt 0 view .LVU141
 407 0020 0220     		movs	r0, #2
 408              	.LVL23:
 409              	.L25:
 410              		.loc 1 351 1 view .LVU142
 411 0022 70BD     		pop	{r4, r5, r6, pc}
 412              	.LVL24:
 413              	.L29:
 414              		.loc 1 332 5 is_stmt 1 view .LVU143
 415              		.loc 1 332 17 is_stmt 0 view .LVU144
 416 0024 0220     		movs	r0, #2
 417 0026 84F82100 		strb	r0, [r4, #33]
 418              		.loc 1 333 5 is_stmt 1 view .LVU145
 419              		.loc 1 333 21 is_stmt 0 view .LVU146
 420 002a 0025     		movs	r5, #0
 421 002c A563     		str	r5, [r4, #56]
 422              		.loc 1 336 5 is_stmt 1 view .LVU147
 423 002e 2668     		ldr	r6, [r4]
 424 0030 3068     		ldr	r0, [r6]
 425 0032 20F00100 		bic	r0, r0, #1
 426 0036 3060     		str	r0, [r6]
 427              		.loc 1 339 5 view .LVU148
 428 0038 2046     		mov	r0, r4
 429 003a FFF7FEFF 		bl	DMA_SetConfig
 430              	.LVL25:
 431              		.loc 1 342 5 view .LVU149
 432 003e 2268     		ldr	r2, [r4]
 433 0040 1368     		ldr	r3, [r2]
 434 0042 43F00103 		orr	r3, r3, #1
 435 0046 1360     		str	r3, [r2]
 436              		.loc 1 321 21 is_stmt 0 view .LVU150
 437 0048 2846     		mov	r0, r5
 438 004a EAE7     		b	.L25
 439              	.LVL26:
 440              	.L27:
 441              		.loc 1 327 3 view .LVU151
 442 004c 0220     		movs	r0, #2
 443 004e E8E7     		b	.L25
 444              		.cfi_endproc
 445              	.LFE67:
 447              		.section	.text.HAL_DMA_Start_IT,"ax",%progbits
 448              		.align	1
 449              		.global	HAL_DMA_Start_IT
 450              		.syntax unified
 451              		.thumb
 452              		.thumb_func
 453              		.fpu softvfp
 455              	HAL_DMA_Start_IT:
 456              	.LVL27:
 457              	.LFB68:
 458              		.loc 1 363 1 is_stmt 1 view -0
 459              		.cfi_startproc
 460              		@ args = 0, pretend = 0, frame = 0
 461              		@ frame_needed = 0, uses_anonymous_args = 0
 462              		.loc 1 363 1 is_stmt 0 view .LVU153
 463 0000 38B5     		push	{r3, r4, r5, lr}
 464              	.LCFI8:
ARM GAS  C:\Users\VD1800~1\AppData\Local\Temp\cce82BKa.s 			page 9


 465              		.cfi_def_cfa_offset 16
 466              		.cfi_offset 3, -16
 467              		.cfi_offset 4, -12
 468              		.cfi_offset 5, -8
 469              		.cfi_offset 14, -4
 470 0002 0446     		mov	r4, r0
 471              		.loc 1 364 3 is_stmt 1 view .LVU154
 472              	.LVL28:
 473              		.loc 1 367 3 view .LVU155
 474              		.loc 1 370 3 view .LVU156
 475              		.loc 1 370 3 view .LVU157
 476 0004 90F82000 		ldrb	r0, [r0, #32]	@ zero_extendqisi2
 477              	.LVL29:
 478              		.loc 1 370 3 is_stmt 0 view .LVU158
 479 0008 0128     		cmp	r0, #1
 480 000a 31D0     		beq	.L35
 481              		.loc 1 370 3 is_stmt 1 discriminator 2 view .LVU159
 482 000c 0120     		movs	r0, #1
 483 000e 84F82000 		strb	r0, [r4, #32]
 484              		.loc 1 370 3 discriminator 2 view .LVU160
 485              		.loc 1 372 3 discriminator 2 view .LVU161
 486              		.loc 1 372 33 is_stmt 0 discriminator 2 view .LVU162
 487 0012 94F82100 		ldrb	r0, [r4, #33]	@ zero_extendqisi2
 488              		.loc 1 372 5 discriminator 2 view .LVU163
 489 0016 0128     		cmp	r0, #1
 490 0018 04D0     		beq	.L37
 491              		.loc 1 402 5 is_stmt 1 view .LVU164
 492              		.loc 1 402 5 view .LVU165
 493 001a 0023     		movs	r3, #0
 494              	.LVL30:
 495              		.loc 1 402 5 is_stmt 0 view .LVU166
 496 001c 84F82030 		strb	r3, [r4, #32]
 497              		.loc 1 402 5 is_stmt 1 view .LVU167
 498              		.loc 1 405 5 view .LVU168
 499              	.LVL31:
 500              		.loc 1 405 12 is_stmt 0 view .LVU169
 501 0020 0220     		movs	r0, #2
 502              	.LVL32:
 503              	.L31:
 504              		.loc 1 408 1 view .LVU170
 505 0022 38BD     		pop	{r3, r4, r5, pc}
 506              	.LVL33:
 507              	.L37:
 508              		.loc 1 375 5 is_stmt 1 view .LVU171
 509              		.loc 1 375 17 is_stmt 0 view .LVU172
 510 0024 0220     		movs	r0, #2
 511 0026 84F82100 		strb	r0, [r4, #33]
 512              		.loc 1 376 5 is_stmt 1 view .LVU173
 513              		.loc 1 376 21 is_stmt 0 view .LVU174
 514 002a 0020     		movs	r0, #0
 515 002c A063     		str	r0, [r4, #56]
 516              		.loc 1 379 5 is_stmt 1 view .LVU175
 517 002e 2568     		ldr	r5, [r4]
 518 0030 2868     		ldr	r0, [r5]
 519 0032 20F00100 		bic	r0, r0, #1
 520 0036 2860     		str	r0, [r5]
 521              		.loc 1 382 5 view .LVU176
ARM GAS  C:\Users\VD1800~1\AppData\Local\Temp\cce82BKa.s 			page 10


 522 0038 2046     		mov	r0, r4
 523 003a FFF7FEFF 		bl	DMA_SetConfig
 524              	.LVL34:
 525              		.loc 1 386 5 view .LVU177
 526              		.loc 1 386 20 is_stmt 0 view .LVU178
 527 003e E36A     		ldr	r3, [r4, #44]
 528              		.loc 1 386 7 view .LVU179
 529 0040 5BB1     		cbz	r3, .L33
 530              		.loc 1 389 7 is_stmt 1 view .LVU180
 531 0042 2268     		ldr	r2, [r4]
 532 0044 1368     		ldr	r3, [r2]
 533 0046 43F00E03 		orr	r3, r3, #14
 534 004a 1360     		str	r3, [r2]
 535              	.L34:
 536              		.loc 1 397 5 view .LVU181
 537 004c 2268     		ldr	r2, [r4]
 538 004e 1368     		ldr	r3, [r2]
 539 0050 43F00103 		orr	r3, r3, #1
 540 0054 1360     		str	r3, [r2]
 541              		.loc 1 364 21 is_stmt 0 view .LVU182
 542 0056 0020     		movs	r0, #0
 543 0058 E3E7     		b	.L31
 544              	.L33:
 545              		.loc 1 393 7 is_stmt 1 view .LVU183
 546 005a 2268     		ldr	r2, [r4]
 547 005c 1368     		ldr	r3, [r2]
 548 005e 23F00403 		bic	r3, r3, #4
 549 0062 1360     		str	r3, [r2]
 550              		.loc 1 394 7 view .LVU184
 551 0064 2268     		ldr	r2, [r4]
 552 0066 1368     		ldr	r3, [r2]
 553 0068 43F00A03 		orr	r3, r3, #10
 554 006c 1360     		str	r3, [r2]
 555 006e EDE7     		b	.L34
 556              	.LVL35:
 557              	.L35:
 558              		.loc 1 370 3 is_stmt 0 view .LVU185
 559 0070 0220     		movs	r0, #2
 560 0072 D6E7     		b	.L31
 561              		.cfi_endproc
 562              	.LFE68:
 564              		.section	.text.HAL_DMA_Abort,"ax",%progbits
 565              		.align	1
 566              		.global	HAL_DMA_Abort
 567              		.syntax unified
 568              		.thumb
 569              		.thumb_func
 570              		.fpu softvfp
 572              	HAL_DMA_Abort:
 573              	.LVL36:
 574              	.LFB69:
 575              		.loc 1 417 1 is_stmt 1 view -0
 576              		.cfi_startproc
 577              		@ args = 0, pretend = 0, frame = 0
 578              		@ frame_needed = 0, uses_anonymous_args = 0
 579              		@ link register save eliminated.
 580              		.loc 1 418 3 view .LVU187
ARM GAS  C:\Users\VD1800~1\AppData\Local\Temp\cce82BKa.s 			page 11


 581              		.loc 1 420 3 view .LVU188
 582              		.loc 1 420 10 is_stmt 0 view .LVU189
 583 0000 90F82130 		ldrb	r3, [r0, #33]	@ zero_extendqisi2
 584              		.loc 1 420 5 view .LVU190
 585 0004 022B     		cmp	r3, #2
 586 0006 06D0     		beq	.L39
 587              		.loc 1 423 5 is_stmt 1 view .LVU191
 588              		.loc 1 423 21 is_stmt 0 view .LVU192
 589 0008 0423     		movs	r3, #4
 590 000a 8363     		str	r3, [r0, #56]
 591              		.loc 1 426 5 is_stmt 1 view .LVU193
 592              		.loc 1 426 5 view .LVU194
 593 000c 0023     		movs	r3, #0
 594 000e 80F82030 		strb	r3, [r0, #32]
 595              		.loc 1 426 5 view .LVU195
 596              		.loc 1 428 5 view .LVU196
 597              		.loc 1 428 12 is_stmt 0 view .LVU197
 598 0012 0120     		movs	r0, #1
 599              	.LVL37:
 600              		.loc 1 428 12 view .LVU198
 601 0014 7047     		bx	lr
 602              	.LVL38:
 603              	.L39:
 604              		.loc 1 434 5 is_stmt 1 view .LVU199
 605 0016 0268     		ldr	r2, [r0]
 606 0018 1368     		ldr	r3, [r2]
 607 001a 23F00E03 		bic	r3, r3, #14
 608 001e 1360     		str	r3, [r2]
 609              		.loc 1 437 5 view .LVU200
 610 0020 0268     		ldr	r2, [r0]
 611 0022 1368     		ldr	r3, [r2]
 612 0024 23F00103 		bic	r3, r3, #1
 613 0028 1360     		str	r3, [r2]
 614              		.loc 1 440 5 view .LVU201
 615              		.loc 1 440 55 is_stmt 0 view .LVU202
 616 002a 036C     		ldr	r3, [r0, #64]
 617              		.loc 1 440 9 view .LVU203
 618 002c C16B     		ldr	r1, [r0, #60]
 619              		.loc 1 440 48 view .LVU204
 620 002e 0122     		movs	r2, #1
 621 0030 02FA03F3 		lsl	r3, r2, r3
 622              		.loc 1 440 32 view .LVU205
 623 0034 4B60     		str	r3, [r1, #4]
 624              		.loc 1 443 3 is_stmt 1 view .LVU206
 625              		.loc 1 443 15 is_stmt 0 view .LVU207
 626 0036 80F82120 		strb	r2, [r0, #33]
 627              		.loc 1 446 3 is_stmt 1 view .LVU208
 628              		.loc 1 446 3 view .LVU209
 629 003a 0023     		movs	r3, #0
 630 003c 80F82030 		strb	r3, [r0, #32]
 631              		.loc 1 446 3 view .LVU210
 632              		.loc 1 448 3 view .LVU211
 633              		.loc 1 448 10 is_stmt 0 view .LVU212
 634 0040 1846     		mov	r0, r3
 635              	.LVL39:
 636              		.loc 1 449 1 view .LVU213
 637 0042 7047     		bx	lr
ARM GAS  C:\Users\VD1800~1\AppData\Local\Temp\cce82BKa.s 			page 12


 638              		.cfi_endproc
 639              	.LFE69:
 641              		.section	.text.HAL_DMA_Abort_IT,"ax",%progbits
 642              		.align	1
 643              		.global	HAL_DMA_Abort_IT
 644              		.syntax unified
 645              		.thumb
 646              		.thumb_func
 647              		.fpu softvfp
 649              	HAL_DMA_Abort_IT:
 650              	.LVL40:
 651              	.LFB70:
 652              		.loc 1 458 1 is_stmt 1 view -0
 653              		.cfi_startproc
 654              		@ args = 0, pretend = 0, frame = 0
 655              		@ frame_needed = 0, uses_anonymous_args = 0
 656              		.loc 1 458 1 is_stmt 0 view .LVU215
 657 0000 08B5     		push	{r3, lr}
 658              	.LCFI9:
 659              		.cfi_def_cfa_offset 8
 660              		.cfi_offset 3, -8
 661              		.cfi_offset 14, -4
 662              		.loc 1 459 3 is_stmt 1 view .LVU216
 663              	.LVL41:
 664              		.loc 1 461 3 view .LVU217
 665              		.loc 1 461 32 is_stmt 0 view .LVU218
 666 0002 90F82130 		ldrb	r3, [r0, #33]	@ zero_extendqisi2
 667              		.loc 1 461 5 view .LVU219
 668 0006 022B     		cmp	r3, #2
 669 0008 03D0     		beq	.L42
 670              		.loc 1 464 5 is_stmt 1 view .LVU220
 671              		.loc 1 464 21 is_stmt 0 view .LVU221
 672 000a 0423     		movs	r3, #4
 673 000c 8363     		str	r3, [r0, #56]
 674              		.loc 1 466 5 is_stmt 1 view .LVU222
 675              	.LVL42:
 676              		.loc 1 466 12 is_stmt 0 view .LVU223
 677 000e 0120     		movs	r0, #1
 678              	.LVL43:
 679              	.L43:
 680              		.loc 1 491 3 is_stmt 1 view .LVU224
 681              		.loc 1 492 1 is_stmt 0 view .LVU225
 682 0010 08BD     		pop	{r3, pc}
 683              	.LVL44:
 684              	.L42:
 685              		.loc 1 471 5 is_stmt 1 view .LVU226
 686 0012 0268     		ldr	r2, [r0]
 687 0014 1368     		ldr	r3, [r2]
 688 0016 23F00E03 		bic	r3, r3, #14
 689 001a 1360     		str	r3, [r2]
 690              		.loc 1 474 5 view .LVU227
 691 001c 0268     		ldr	r2, [r0]
 692 001e 1368     		ldr	r3, [r2]
 693 0020 23F00103 		bic	r3, r3, #1
 694 0024 1360     		str	r3, [r2]
 695              		.loc 1 477 5 view .LVU228
 696 0026 0368     		ldr	r3, [r0]
ARM GAS  C:\Users\VD1800~1\AppData\Local\Temp\cce82BKa.s 			page 13


 697 0028 194A     		ldr	r2, .L54
 698 002a 9342     		cmp	r3, r2
 699 002c 14D0     		beq	.L45
 700              		.loc 1 477 5 is_stmt 0 discriminator 1 view .LVU229
 701 002e 1432     		adds	r2, r2, #20
 702 0030 9342     		cmp	r3, r2
 703 0032 1FD0     		beq	.L46
 704              		.loc 1 477 5 discriminator 3 view .LVU230
 705 0034 1432     		adds	r2, r2, #20
 706 0036 9342     		cmp	r3, r2
 707 0038 1ED0     		beq	.L47
 708              		.loc 1 477 5 discriminator 5 view .LVU231
 709 003a 1432     		adds	r2, r2, #20
 710 003c 9342     		cmp	r3, r2
 711 003e 1ED0     		beq	.L48
 712              		.loc 1 477 5 discriminator 7 view .LVU232
 713 0040 1432     		adds	r2, r2, #20
 714 0042 9342     		cmp	r3, r2
 715 0044 1ED0     		beq	.L49
 716              		.loc 1 477 5 discriminator 9 view .LVU233
 717 0046 1432     		adds	r2, r2, #20
 718 0048 9342     		cmp	r3, r2
 719 004a 02D0     		beq	.L53
 720              		.loc 1 477 5 view .LVU234
 721 004c 4FF08072 		mov	r2, #16777216
 722 0050 03E0     		b	.L44
 723              	.L53:
 724 0052 4FF48012 		mov	r2, #1048576
 725 0056 00E0     		b	.L44
 726              	.L45:
 727 0058 0122     		movs	r2, #1
 728              	.L44:
 729              		.loc 1 477 5 discriminator 24 view .LVU235
 730 005a 0E4B     		ldr	r3, .L54+4
 731 005c 5A60     		str	r2, [r3, #4]
 732              		.loc 1 480 5 is_stmt 1 discriminator 24 view .LVU236
 733              		.loc 1 480 17 is_stmt 0 discriminator 24 view .LVU237
 734 005e 0123     		movs	r3, #1
 735 0060 80F82130 		strb	r3, [r0, #33]
 736              		.loc 1 483 5 is_stmt 1 discriminator 24 view .LVU238
 737              		.loc 1 483 5 discriminator 24 view .LVU239
 738 0064 0023     		movs	r3, #0
 739 0066 80F82030 		strb	r3, [r0, #32]
 740              		.loc 1 483 5 discriminator 24 view .LVU240
 741              		.loc 1 486 5 discriminator 24 view .LVU241
 742              		.loc 1 486 12 is_stmt 0 discriminator 24 view .LVU242
 743 006a 436B     		ldr	r3, [r0, #52]
 744              		.loc 1 486 7 discriminator 24 view .LVU243
 745 006c 6BB1     		cbz	r3, .L51
 746              		.loc 1 488 7 is_stmt 1 view .LVU244
 747 006e 9847     		blx	r3
 748              	.LVL45:
 749              		.loc 1 459 21 is_stmt 0 view .LVU245
 750 0070 0020     		movs	r0, #0
 751 0072 CDE7     		b	.L43
 752              	.LVL46:
 753              	.L46:
ARM GAS  C:\Users\VD1800~1\AppData\Local\Temp\cce82BKa.s 			page 14


 754              		.loc 1 477 5 view .LVU246
 755 0074 1022     		movs	r2, #16
 756 0076 F0E7     		b	.L44
 757              	.L47:
 758 0078 4FF48072 		mov	r2, #256
 759 007c EDE7     		b	.L44
 760              	.L48:
 761 007e 4FF48052 		mov	r2, #4096
 762 0082 EAE7     		b	.L44
 763              	.L49:
 764 0084 4FF48032 		mov	r2, #65536
 765 0088 E7E7     		b	.L44
 766              	.L51:
 767              		.loc 1 459 21 view .LVU247
 768 008a 0020     		movs	r0, #0
 769              	.LVL47:
 770              		.loc 1 459 21 view .LVU248
 771 008c C0E7     		b	.L43
 772              	.L55:
 773 008e 00BF     		.align	2
 774              	.L54:
 775 0090 08000240 		.word	1073872904
 776 0094 00000240 		.word	1073872896
 777              		.cfi_endproc
 778              	.LFE70:
 780              		.section	.text.HAL_DMA_PollForTransfer,"ax",%progbits
 781              		.align	1
 782              		.global	HAL_DMA_PollForTransfer
 783              		.syntax unified
 784              		.thumb
 785              		.thumb_func
 786              		.fpu softvfp
 788              	HAL_DMA_PollForTransfer:
 789              	.LVL48:
 790              	.LFB71:
 791              		.loc 1 503 1 is_stmt 1 view -0
 792              		.cfi_startproc
 793              		@ args = 0, pretend = 0, frame = 0
 794              		@ frame_needed = 0, uses_anonymous_args = 0
 795              		.loc 1 503 1 is_stmt 0 view .LVU250
 796 0000 2DE9F041 		push	{r4, r5, r6, r7, r8, lr}
 797              	.LCFI10:
 798              		.cfi_def_cfa_offset 24
 799              		.cfi_offset 4, -24
 800              		.cfi_offset 5, -20
 801              		.cfi_offset 6, -16
 802              		.cfi_offset 7, -12
 803              		.cfi_offset 8, -8
 804              		.cfi_offset 14, -4
 805 0004 0446     		mov	r4, r0
 806              		.loc 1 504 3 is_stmt 1 view .LVU251
 807              		.loc 1 505 3 view .LVU252
 808              	.LVL49:
 809              		.loc 1 507 3 view .LVU253
 810              		.loc 1 507 32 is_stmt 0 view .LVU254
 811 0006 90F82130 		ldrb	r3, [r0, #33]	@ zero_extendqisi2
 812              		.loc 1 507 5 view .LVU255
ARM GAS  C:\Users\VD1800~1\AppData\Local\Temp\cce82BKa.s 			page 15


 813 000a 022B     		cmp	r3, #2
 814 000c 07D0     		beq	.L57
 815              		.loc 1 510 5 is_stmt 1 view .LVU256
 816              		.loc 1 510 21 is_stmt 0 view .LVU257
 817 000e 0423     		movs	r3, #4
 818 0010 8363     		str	r3, [r0, #56]
 819              		.loc 1 511 5 is_stmt 1 view .LVU258
 820              		.loc 1 511 5 view .LVU259
 821 0012 0023     		movs	r3, #0
 822 0014 80F82030 		strb	r3, [r0, #32]
 823              		.loc 1 511 5 view .LVU260
 824              		.loc 1 512 5 view .LVU261
 825              		.loc 1 512 12 is_stmt 0 view .LVU262
 826 0018 0120     		movs	r0, #1
 827              	.LVL50:
 828              	.L58:
 829              		.loc 1 595 1 view .LVU263
 830 001a BDE8F081 		pop	{r4, r5, r6, r7, r8, pc}
 831              	.LVL51:
 832              	.L57:
 833              		.loc 1 595 1 view .LVU264
 834 001e 0F46     		mov	r7, r1
 835 0020 1546     		mov	r5, r2
 836              		.loc 1 516 3 is_stmt 1 view .LVU265
 837              		.loc 1 516 21 is_stmt 0 view .LVU266
 838 0022 0368     		ldr	r3, [r0]
 839              		.loc 1 516 31 view .LVU267
 840 0024 1A68     		ldr	r2, [r3]
 841              	.LVL52:
 842              		.loc 1 516 6 view .LVU268
 843 0026 12F0200F 		tst	r2, #32
 844 002a 15D1     		bne	.L103
 845              		.loc 1 523 3 is_stmt 1 view .LVU269
 846              		.loc 1 523 5 is_stmt 0 view .LVU270
 847 002c E1B9     		cbnz	r1, .L60
 848              		.loc 1 526 5 is_stmt 1 view .LVU271
 849              		.loc 1 526 12 is_stmt 0 view .LVU272
 850 002e 7D4A     		ldr	r2, .L112
 851 0030 9342     		cmp	r3, r2
 852 0032 31D0     		beq	.L72
 853              		.loc 1 526 12 discriminator 1 view .LVU273
 854 0034 1432     		adds	r2, r2, #20
 855 0036 9342     		cmp	r3, r2
 856 0038 33D0     		beq	.L73
 857              		.loc 1 526 12 discriminator 3 view .LVU274
 858 003a 1432     		adds	r2, r2, #20
 859 003c 9342     		cmp	r3, r2
 860 003e 32D0     		beq	.L74
 861              		.loc 1 526 12 discriminator 5 view .LVU275
 862 0040 1432     		adds	r2, r2, #20
 863 0042 9342     		cmp	r3, r2
 864 0044 32D0     		beq	.L75
 865              		.loc 1 526 12 discriminator 7 view .LVU276
 866 0046 1432     		adds	r2, r2, #20
 867 0048 9342     		cmp	r3, r2
 868 004a 32D0     		beq	.L76
 869              		.loc 1 526 12 discriminator 9 view .LVU277
ARM GAS  C:\Users\VD1800~1\AppData\Local\Temp\cce82BKa.s 			page 16


 870 004c 1432     		adds	r2, r2, #20
 871 004e 9342     		cmp	r3, r2
 872 0050 07D0     		beq	.L104
 873              		.loc 1 526 12 view .LVU278
 874 0052 4FF00076 		mov	r6, #33554432
 875 0056 20E0     		b	.L61
 876              	.L103:
 877              		.loc 1 518 5 is_stmt 1 view .LVU279
 878              		.loc 1 518 21 is_stmt 0 view .LVU280
 879 0058 4FF48073 		mov	r3, #256
 880 005c 8363     		str	r3, [r0, #56]
 881              		.loc 1 519 5 is_stmt 1 view .LVU281
 882              		.loc 1 519 12 is_stmt 0 view .LVU282
 883 005e 0120     		movs	r0, #1
 884              	.LVL53:
 885              		.loc 1 519 12 view .LVU283
 886 0060 DBE7     		b	.L58
 887              	.LVL54:
 888              	.L104:
 889              		.loc 1 526 12 view .LVU284
 890 0062 4FF40016 		mov	r6, #2097152
 891 0066 18E0     		b	.L61
 892              	.L60:
 893              		.loc 1 531 5 is_stmt 1 view .LVU285
 894              		.loc 1 531 12 is_stmt 0 view .LVU286
 895 0068 6E4A     		ldr	r2, .L112
 896 006a 9342     		cmp	r3, r2
 897 006c 24D0     		beq	.L78
 898              		.loc 1 531 12 discriminator 1 view .LVU287
 899 006e 1432     		adds	r2, r2, #20
 900 0070 9342     		cmp	r3, r2
 901 0072 23D0     		beq	.L79
 902              		.loc 1 531 12 discriminator 3 view .LVU288
 903 0074 1432     		adds	r2, r2, #20
 904 0076 9342     		cmp	r3, r2
 905 0078 22D0     		beq	.L80
 906              		.loc 1 531 12 discriminator 5 view .LVU289
 907 007a 1432     		adds	r2, r2, #20
 908 007c 9342     		cmp	r3, r2
 909 007e 22D0     		beq	.L81
 910              		.loc 1 531 12 discriminator 7 view .LVU290
 911 0080 1432     		adds	r2, r2, #20
 912 0082 9342     		cmp	r3, r2
 913 0084 22D0     		beq	.L82
 914              		.loc 1 531 12 discriminator 9 view .LVU291
 915 0086 1432     		adds	r2, r2, #20
 916 0088 9342     		cmp	r3, r2
 917 008a 02D0     		beq	.L105
 918              		.loc 1 531 12 view .LVU292
 919 008c 4FF08066 		mov	r6, #67108864
 920 0090 03E0     		b	.L61
 921              	.L105:
 922 0092 4FF48006 		mov	r6, #4194304
 923 0096 00E0     		b	.L61
 924              	.L72:
 925              		.loc 1 526 12 view .LVU293
 926 0098 0226     		movs	r6, #2
ARM GAS  C:\Users\VD1800~1\AppData\Local\Temp\cce82BKa.s 			page 17


 927              	.L61:
 928              	.LVL55:
 929              		.loc 1 535 3 is_stmt 1 view .LVU294
 930              		.loc 1 535 15 is_stmt 0 view .LVU295
 931 009a FFF7FEFF 		bl	HAL_GetTick
 932              	.LVL56:
 933              		.loc 1 535 15 view .LVU296
 934 009e 8046     		mov	r8, r0
 935              	.LVL57:
 936              		.loc 1 537 3 is_stmt 1 view .LVU297
 937              		.loc 1 537 8 is_stmt 0 view .LVU298
 938 00a0 20E0     		b	.L65
 939              	.LVL58:
 940              	.L73:
 941              		.loc 1 526 12 view .LVU299
 942 00a2 2026     		movs	r6, #32
 943 00a4 F9E7     		b	.L61
 944              	.L74:
 945 00a6 4FF40076 		mov	r6, #512
 946 00aa F6E7     		b	.L61
 947              	.L75:
 948 00ac 4FF40056 		mov	r6, #8192
 949 00b0 F3E7     		b	.L61
 950              	.L76:
 951 00b2 4FF40036 		mov	r6, #131072
 952 00b6 F0E7     		b	.L61
 953              	.L78:
 954              		.loc 1 531 12 view .LVU300
 955 00b8 0426     		movs	r6, #4
 956 00ba EEE7     		b	.L61
 957              	.L79:
 958 00bc 4026     		movs	r6, #64
 959 00be ECE7     		b	.L61
 960              	.L80:
 961 00c0 4FF48066 		mov	r6, #1024
 962 00c4 E9E7     		b	.L61
 963              	.L81:
 964 00c6 4FF48046 		mov	r6, #16384
 965 00ca E6E7     		b	.L61
 966              	.L82:
 967 00cc 4FF48026 		mov	r6, #262144
 968 00d0 E3E7     		b	.L61
 969              	.LVL59:
 970              	.L109:
 971              		.loc 1 539 9 view .LVU301
 972 00d2 4FF40003 		mov	r3, #8388608
 973 00d6 00E0     		b	.L63
 974              	.L84:
 975 00d8 0823     		movs	r3, #8
 976              	.L63:
 977              		.loc 1 539 7 discriminator 24 view .LVU302
 978 00da 1A42     		tst	r2, r3
 979 00dc 29D1     		bne	.L106
 980              		.loc 1 558 5 is_stmt 1 view .LVU303
 981              		.loc 1 558 7 is_stmt 0 view .LVU304
 982 00de B5F1FF3F 		cmp	r5, #-1
 983 00e2 35D1     		bne	.L107
ARM GAS  C:\Users\VD1800~1\AppData\Local\Temp\cce82BKa.s 			page 18


 984              	.L65:
 985              		.loc 1 537 8 is_stmt 1 view .LVU305
 986              		.loc 1 537 9 is_stmt 0 view .LVU306
 987 00e4 504B     		ldr	r3, .L112+4
 988 00e6 1B68     		ldr	r3, [r3]
 989              		.loc 1 537 8 view .LVU307
 990 00e8 3342     		tst	r3, r6
 991 00ea 43D1     		bne	.L108
 992              		.loc 1 539 5 is_stmt 1 view .LVU308
 993              		.loc 1 539 9 is_stmt 0 view .LVU309
 994 00ec 4E4B     		ldr	r3, .L112+4
 995 00ee 1A68     		ldr	r2, [r3]
 996 00f0 2368     		ldr	r3, [r4]
 997 00f2 4C49     		ldr	r1, .L112
 998 00f4 8B42     		cmp	r3, r1
 999 00f6 EFD0     		beq	.L84
 1000              		.loc 1 539 9 discriminator 1 view .LVU310
 1001 00f8 1431     		adds	r1, r1, #20
 1002 00fa 8B42     		cmp	r3, r1
 1003 00fc 0ED0     		beq	.L85
 1004              		.loc 1 539 9 discriminator 3 view .LVU311
 1005 00fe 1431     		adds	r1, r1, #20
 1006 0100 8B42     		cmp	r3, r1
 1007 0102 0DD0     		beq	.L86
 1008              		.loc 1 539 9 discriminator 5 view .LVU312
 1009 0104 1431     		adds	r1, r1, #20
 1010 0106 8B42     		cmp	r3, r1
 1011 0108 0DD0     		beq	.L87
 1012              		.loc 1 539 9 discriminator 7 view .LVU313
 1013 010a 1431     		adds	r1, r1, #20
 1014 010c 8B42     		cmp	r3, r1
 1015 010e 0DD0     		beq	.L88
 1016              		.loc 1 539 9 discriminator 9 view .LVU314
 1017 0110 1431     		adds	r1, r1, #20
 1018 0112 8B42     		cmp	r3, r1
 1019 0114 DDD0     		beq	.L109
 1020              		.loc 1 539 9 view .LVU315
 1021 0116 4FF00063 		mov	r3, #134217728
 1022 011a DEE7     		b	.L63
 1023              	.L85:
 1024 011c 8023     		movs	r3, #128
 1025 011e DCE7     		b	.L63
 1026              	.L86:
 1027 0120 4FF40063 		mov	r3, #2048
 1028 0124 D9E7     		b	.L63
 1029              	.L87:
 1030 0126 4FF40043 		mov	r3, #32768
 1031 012a D6E7     		b	.L63
 1032              	.L88:
 1033 012c 4FF40023 		mov	r3, #524288
 1034 0130 D3E7     		b	.L63
 1035              	.L106:
 1036              		.loc 1 544 7 is_stmt 1 view .LVU316
 1037              		.loc 1 544 57 is_stmt 0 view .LVU317
 1038 0132 236C     		ldr	r3, [r4, #64]
 1039              		.loc 1 544 11 view .LVU318
 1040 0134 E26B     		ldr	r2, [r4, #60]
ARM GAS  C:\Users\VD1800~1\AppData\Local\Temp\cce82BKa.s 			page 19


 1041              		.loc 1 544 50 view .LVU319
 1042 0136 0120     		movs	r0, #1
 1043 0138 00FA03F3 		lsl	r3, r0, r3
 1044              		.loc 1 544 34 view .LVU320
 1045 013c 5360     		str	r3, [r2, #4]
 1046              		.loc 1 547 7 is_stmt 1 view .LVU321
 1047 013e A36B     		ldr	r3, [r4, #56]
 1048 0140 0343     		orrs	r3, r3, r0
 1049 0142 A363     		str	r3, [r4, #56]
 1050              		.loc 1 550 7 view .LVU322
 1051              		.loc 1 550 18 is_stmt 0 view .LVU323
 1052 0144 84F82100 		strb	r0, [r4, #33]
 1053              		.loc 1 553 7 is_stmt 1 view .LVU324
 1054              		.loc 1 553 7 view .LVU325
 1055 0148 0023     		movs	r3, #0
 1056 014a 84F82030 		strb	r3, [r4, #32]
 1057              		.loc 1 553 7 view .LVU326
 1058              		.loc 1 555 7 view .LVU327
 1059              		.loc 1 555 14 is_stmt 0 view .LVU328
 1060 014e 64E7     		b	.L58
 1061              	.L107:
 1062              		.loc 1 560 7 is_stmt 1 view .LVU329
 1063              		.loc 1 560 9 is_stmt 0 view .LVU330
 1064 0150 2DB1     		cbz	r5, .L66
 1065              		.loc 1 560 31 discriminator 1 view .LVU331
 1066 0152 FFF7FEFF 		bl	HAL_GetTick
 1067              	.LVL60:
 1068              		.loc 1 560 45 discriminator 1 view .LVU332
 1069 0156 A0EB0800 		sub	r0, r0, r8
 1070              		.loc 1 560 26 discriminator 1 view .LVU333
 1071 015a A842     		cmp	r0, r5
 1072 015c C2D9     		bls	.L65
 1073              	.L66:
 1074              		.loc 1 563 9 is_stmt 1 view .LVU334
 1075 015e A36B     		ldr	r3, [r4, #56]
 1076 0160 43F02003 		orr	r3, r3, #32
 1077 0164 A363     		str	r3, [r4, #56]
 1078              		.loc 1 566 9 view .LVU335
 1079              		.loc 1 566 21 is_stmt 0 view .LVU336
 1080 0166 0120     		movs	r0, #1
 1081 0168 84F82100 		strb	r0, [r4, #33]
 1082              		.loc 1 569 9 is_stmt 1 view .LVU337
 1083              		.loc 1 569 9 view .LVU338
 1084 016c 0023     		movs	r3, #0
 1085 016e 84F82030 		strb	r3, [r4, #32]
 1086              		.loc 1 569 9 view .LVU339
 1087              		.loc 1 571 9 view .LVU340
 1088              		.loc 1 571 16 is_stmt 0 view .LVU341
 1089 0172 52E7     		b	.L58
 1090              	.L108:
 1091              		.loc 1 576 3 is_stmt 1 view .LVU342
 1092              		.loc 1 576 5 is_stmt 0 view .LVU343
 1093 0174 6FBB     		cbnz	r7, .L68
 1094              		.loc 1 579 5 is_stmt 1 view .LVU344
 1095 0176 2368     		ldr	r3, [r4]
 1096 0178 2A4A     		ldr	r2, .L112
 1097 017a 9342     		cmp	r3, r2
ARM GAS  C:\Users\VD1800~1\AppData\Local\Temp\cce82BKa.s 			page 20


 1098 017c 14D0     		beq	.L90
 1099              		.loc 1 579 5 is_stmt 0 discriminator 1 view .LVU345
 1100 017e 1432     		adds	r2, r2, #20
 1101 0180 9342     		cmp	r3, r2
 1102 0182 1BD0     		beq	.L91
 1103              		.loc 1 579 5 discriminator 3 view .LVU346
 1104 0184 1432     		adds	r2, r2, #20
 1105 0186 9342     		cmp	r3, r2
 1106 0188 1AD0     		beq	.L92
 1107              		.loc 1 579 5 discriminator 5 view .LVU347
 1108 018a 1432     		adds	r2, r2, #20
 1109 018c 9342     		cmp	r3, r2
 1110 018e 1AD0     		beq	.L93
 1111              		.loc 1 579 5 discriminator 7 view .LVU348
 1112 0190 1432     		adds	r2, r2, #20
 1113 0192 9342     		cmp	r3, r2
 1114 0194 1AD0     		beq	.L94
 1115              		.loc 1 579 5 discriminator 9 view .LVU349
 1116 0196 1432     		adds	r2, r2, #20
 1117 0198 9342     		cmp	r3, r2
 1118 019a 02D0     		beq	.L110
 1119              		.loc 1 579 5 view .LVU350
 1120 019c 4FF00072 		mov	r2, #33554432
 1121 01a0 03E0     		b	.L69
 1122              	.L110:
 1123 01a2 4FF40012 		mov	r2, #2097152
 1124 01a6 00E0     		b	.L69
 1125              	.L90:
 1126 01a8 0222     		movs	r2, #2
 1127              	.L69:
 1128              		.loc 1 579 5 discriminator 24 view .LVU351
 1129 01aa 1F4B     		ldr	r3, .L112+4
 1130 01ac 5A60     		str	r2, [r3, #4]
 1131              		.loc 1 583 5 is_stmt 1 discriminator 24 view .LVU352
 1132              		.loc 1 583 17 is_stmt 0 discriminator 24 view .LVU353
 1133 01ae 0123     		movs	r3, #1
 1134 01b0 84F82130 		strb	r3, [r4, #33]
 1135              	.L70:
 1136              		.loc 1 592 3 is_stmt 1 view .LVU354
 1137              		.loc 1 592 3 view .LVU355
 1138 01b4 0020     		movs	r0, #0
 1139 01b6 84F82000 		strb	r0, [r4, #32]
 1140              		.loc 1 592 3 view .LVU356
 1141              		.loc 1 594 3 view .LVU357
 1142              		.loc 1 594 10 is_stmt 0 view .LVU358
 1143 01ba 2EE7     		b	.L58
 1144              	.L91:
 1145              		.loc 1 579 5 view .LVU359
 1146 01bc 2022     		movs	r2, #32
 1147 01be F4E7     		b	.L69
 1148              	.L92:
 1149 01c0 4FF40072 		mov	r2, #512
 1150 01c4 F1E7     		b	.L69
 1151              	.L93:
 1152 01c6 4FF40052 		mov	r2, #8192
 1153 01ca EEE7     		b	.L69
 1154              	.L94:
ARM GAS  C:\Users\VD1800~1\AppData\Local\Temp\cce82BKa.s 			page 21


 1155 01cc 4FF40032 		mov	r2, #131072
 1156 01d0 EBE7     		b	.L69
 1157              	.L68:
 1158              		.loc 1 588 5 is_stmt 1 view .LVU360
 1159 01d2 2368     		ldr	r3, [r4]
 1160 01d4 134A     		ldr	r2, .L112
 1161 01d6 9342     		cmp	r3, r2
 1162 01d8 14D0     		beq	.L96
 1163              		.loc 1 588 5 is_stmt 0 discriminator 1 view .LVU361
 1164 01da 1432     		adds	r2, r2, #20
 1165 01dc 9342     		cmp	r3, r2
 1166 01de 15D0     		beq	.L97
 1167              		.loc 1 588 5 discriminator 3 view .LVU362
 1168 01e0 1432     		adds	r2, r2, #20
 1169 01e2 9342     		cmp	r3, r2
 1170 01e4 14D0     		beq	.L98
 1171              		.loc 1 588 5 discriminator 5 view .LVU363
 1172 01e6 1432     		adds	r2, r2, #20
 1173 01e8 9342     		cmp	r3, r2
 1174 01ea 14D0     		beq	.L99
 1175              		.loc 1 588 5 discriminator 7 view .LVU364
 1176 01ec 1432     		adds	r2, r2, #20
 1177 01ee 9342     		cmp	r3, r2
 1178 01f0 14D0     		beq	.L100
 1179              		.loc 1 588 5 discriminator 9 view .LVU365
 1180 01f2 1432     		adds	r2, r2, #20
 1181 01f4 9342     		cmp	r3, r2
 1182 01f6 02D0     		beq	.L111
 1183              		.loc 1 588 5 view .LVU366
 1184 01f8 4FF08062 		mov	r2, #67108864
 1185 01fc 03E0     		b	.L71
 1186              	.L111:
 1187 01fe 4FF48002 		mov	r2, #4194304
 1188 0202 00E0     		b	.L71
 1189              	.L96:
 1190 0204 0422     		movs	r2, #4
 1191              	.L71:
 1192              		.loc 1 588 5 discriminator 24 view .LVU367
 1193 0206 084B     		ldr	r3, .L112+4
 1194 0208 5A60     		str	r2, [r3, #4]
 1195 020a D3E7     		b	.L70
 1196              	.L97:
 1197              		.loc 1 588 5 view .LVU368
 1198 020c 4022     		movs	r2, #64
 1199 020e FAE7     		b	.L71
 1200              	.L98:
 1201 0210 4FF48062 		mov	r2, #1024
 1202 0214 F7E7     		b	.L71
 1203              	.L99:
 1204 0216 4FF48042 		mov	r2, #16384
 1205 021a F4E7     		b	.L71
 1206              	.L100:
 1207 021c 4FF48022 		mov	r2, #262144
 1208 0220 F1E7     		b	.L71
 1209              	.L113:
 1210 0222 00BF     		.align	2
 1211              	.L112:
ARM GAS  C:\Users\VD1800~1\AppData\Local\Temp\cce82BKa.s 			page 22


 1212 0224 08000240 		.word	1073872904
 1213 0228 00000240 		.word	1073872896
 1214              		.cfi_endproc
 1215              	.LFE71:
 1217              		.section	.text.HAL_DMA_IRQHandler,"ax",%progbits
 1218              		.align	1
 1219              		.global	HAL_DMA_IRQHandler
 1220              		.syntax unified
 1221              		.thumb
 1222              		.thumb_func
 1223              		.fpu softvfp
 1225              	HAL_DMA_IRQHandler:
 1226              	.LVL61:
 1227              	.LFB72:
 1228              		.loc 1 604 1 is_stmt 1 view -0
 1229              		.cfi_startproc
 1230              		@ args = 0, pretend = 0, frame = 0
 1231              		@ frame_needed = 0, uses_anonymous_args = 0
 1232              		.loc 1 604 1 is_stmt 0 view .LVU370
 1233 0000 38B5     		push	{r3, r4, r5, lr}
 1234              	.LCFI11:
 1235              		.cfi_def_cfa_offset 16
 1236              		.cfi_offset 3, -16
 1237              		.cfi_offset 4, -12
 1238              		.cfi_offset 5, -8
 1239              		.cfi_offset 14, -4
 1240              		.loc 1 605 3 is_stmt 1 view .LVU371
 1241              		.loc 1 605 26 is_stmt 0 view .LVU372
 1242 0002 C36B     		ldr	r3, [r0, #60]
 1243              		.loc 1 605 12 view .LVU373
 1244 0004 1A68     		ldr	r2, [r3]
 1245              	.LVL62:
 1246              		.loc 1 606 3 is_stmt 1 view .LVU374
 1247              		.loc 1 606 28 is_stmt 0 view .LVU375
 1248 0006 0468     		ldr	r4, [r0]
 1249              		.loc 1 606 12 view .LVU376
 1250 0008 2568     		ldr	r5, [r4]
 1251              	.LVL63:
 1252              		.loc 1 609 3 is_stmt 1 view .LVU377
 1253              		.loc 1 609 40 is_stmt 0 view .LVU378
 1254 000a 016C     		ldr	r1, [r0, #64]
 1255              		.loc 1 609 33 view .LVU379
 1256 000c 0423     		movs	r3, #4
 1257 000e 8B40     		lsls	r3, r3, r1
 1258              		.loc 1 609 6 view .LVU380
 1259 0010 1342     		tst	r3, r2
 1260 0012 35D0     		beq	.L115
 1261              		.loc 1 609 67 discriminator 1 view .LVU381
 1262 0014 15F0040F 		tst	r5, #4
 1263 0018 32D0     		beq	.L115
 1264              		.loc 1 612 5 is_stmt 1 view .LVU382
 1265              		.loc 1 612 23 is_stmt 0 view .LVU383
 1266 001a 2368     		ldr	r3, [r4]
 1267              		.loc 1 612 7 view .LVU384
 1268 001c 13F0200F 		tst	r3, #32
 1269 0020 03D1     		bne	.L116
 1270              		.loc 1 615 7 is_stmt 1 view .LVU385
ARM GAS  C:\Users\VD1800~1\AppData\Local\Temp\cce82BKa.s 			page 23


 1271 0022 2368     		ldr	r3, [r4]
 1272 0024 23F00403 		bic	r3, r3, #4
 1273 0028 2360     		str	r3, [r4]
 1274              	.L116:
 1275              		.loc 1 618 5 view .LVU386
 1276 002a 0368     		ldr	r3, [r0]
 1277 002c 434A     		ldr	r2, .L137
 1278              	.LVL64:
 1279              		.loc 1 618 5 is_stmt 0 view .LVU387
 1280 002e 9342     		cmp	r3, r2
 1281 0030 14D0     		beq	.L122
 1282              		.loc 1 618 5 discriminator 1 view .LVU388
 1283 0032 1432     		adds	r2, r2, #20
 1284 0034 9342     		cmp	r3, r2
 1285 0036 18D0     		beq	.L123
 1286              		.loc 1 618 5 discriminator 3 view .LVU389
 1287 0038 1432     		adds	r2, r2, #20
 1288 003a 9342     		cmp	r3, r2
 1289 003c 17D0     		beq	.L124
 1290              		.loc 1 618 5 discriminator 5 view .LVU390
 1291 003e 1432     		adds	r2, r2, #20
 1292 0040 9342     		cmp	r3, r2
 1293 0042 17D0     		beq	.L125
 1294              		.loc 1 618 5 discriminator 7 view .LVU391
 1295 0044 1432     		adds	r2, r2, #20
 1296 0046 9342     		cmp	r3, r2
 1297 0048 17D0     		beq	.L126
 1298              		.loc 1 618 5 discriminator 9 view .LVU392
 1299 004a 1432     		adds	r2, r2, #20
 1300 004c 9342     		cmp	r3, r2
 1301 004e 02D0     		beq	.L135
 1302              		.loc 1 618 5 view .LVU393
 1303 0050 4FF08062 		mov	r2, #67108864
 1304 0054 03E0     		b	.L117
 1305              	.L135:
 1306 0056 4FF48002 		mov	r2, #4194304
 1307 005a 00E0     		b	.L117
 1308              	.L122:
 1309 005c 0422     		movs	r2, #4
 1310              	.L117:
 1311              		.loc 1 618 5 discriminator 24 view .LVU394
 1312 005e 384B     		ldr	r3, .L137+4
 1313 0060 5A60     		str	r2, [r3, #4]
 1314              		.loc 1 623 5 is_stmt 1 discriminator 24 view .LVU395
 1315              		.loc 1 623 12 is_stmt 0 discriminator 24 view .LVU396
 1316 0062 C36A     		ldr	r3, [r0, #44]
 1317              		.loc 1 623 7 discriminator 24 view .LVU397
 1318 0064 03B1     		cbz	r3, .L114
 1319              		.loc 1 626 7 is_stmt 1 view .LVU398
 1320 0066 9847     		blx	r3
 1321              	.LVL65:
 1322              	.L114:
 1323              		.loc 1 681 1 is_stmt 0 view .LVU399
 1324 0068 38BD     		pop	{r3, r4, r5, pc}
 1325              	.LVL66:
 1326              	.L123:
 1327              		.loc 1 618 5 view .LVU400
ARM GAS  C:\Users\VD1800~1\AppData\Local\Temp\cce82BKa.s 			page 24


 1328 006a 4022     		movs	r2, #64
 1329 006c F7E7     		b	.L117
 1330              	.L124:
 1331 006e 4FF48062 		mov	r2, #1024
 1332 0072 F4E7     		b	.L117
 1333              	.L125:
 1334 0074 4FF48042 		mov	r2, #16384
 1335 0078 F1E7     		b	.L117
 1336              	.L126:
 1337 007a 4FF48022 		mov	r2, #262144
 1338 007e EEE7     		b	.L117
 1339              	.LVL67:
 1340              	.L115:
 1341              		.loc 1 631 8 is_stmt 1 view .LVU401
 1342              		.loc 1 631 38 is_stmt 0 view .LVU402
 1343 0080 0223     		movs	r3, #2
 1344 0082 8B40     		lsls	r3, r3, r1
 1345              		.loc 1 631 11 view .LVU403
 1346 0084 1342     		tst	r3, r2
 1347 0086 3CD0     		beq	.L119
 1348              		.loc 1 631 72 discriminator 1 view .LVU404
 1349 0088 15F0020F 		tst	r5, #2
 1350 008c 39D0     		beq	.L119
 1351              		.loc 1 633 5 is_stmt 1 view .LVU405
 1352              		.loc 1 633 23 is_stmt 0 view .LVU406
 1353 008e 2368     		ldr	r3, [r4]
 1354              		.loc 1 633 7 view .LVU407
 1355 0090 13F0200F 		tst	r3, #32
 1356 0094 06D1     		bne	.L120
 1357              		.loc 1 636 7 is_stmt 1 view .LVU408
 1358 0096 2368     		ldr	r3, [r4]
 1359 0098 23F00A03 		bic	r3, r3, #10
 1360 009c 2360     		str	r3, [r4]
 1361              		.loc 1 639 7 view .LVU409
 1362              		.loc 1 639 19 is_stmt 0 view .LVU410
 1363 009e 0123     		movs	r3, #1
 1364 00a0 80F82130 		strb	r3, [r0, #33]
 1365              	.L120:
 1366              		.loc 1 642 7 is_stmt 1 view .LVU411
 1367 00a4 0368     		ldr	r3, [r0]
 1368 00a6 254A     		ldr	r2, .L137
 1369              	.LVL68:
 1370              		.loc 1 642 7 is_stmt 0 view .LVU412
 1371 00a8 9342     		cmp	r3, r2
 1372 00aa 14D0     		beq	.L128
 1373              		.loc 1 642 7 discriminator 1 view .LVU413
 1374 00ac 1432     		adds	r2, r2, #20
 1375 00ae 9342     		cmp	r3, r2
 1376 00b0 1CD0     		beq	.L129
 1377              		.loc 1 642 7 discriminator 3 view .LVU414
 1378 00b2 1432     		adds	r2, r2, #20
 1379 00b4 9342     		cmp	r3, r2
 1380 00b6 1BD0     		beq	.L130
 1381              		.loc 1 642 7 discriminator 5 view .LVU415
 1382 00b8 1432     		adds	r2, r2, #20
 1383 00ba 9342     		cmp	r3, r2
 1384 00bc 1BD0     		beq	.L131
ARM GAS  C:\Users\VD1800~1\AppData\Local\Temp\cce82BKa.s 			page 25


 1385              		.loc 1 642 7 discriminator 7 view .LVU416
 1386 00be 1432     		adds	r2, r2, #20
 1387 00c0 9342     		cmp	r3, r2
 1388 00c2 1BD0     		beq	.L132
 1389              		.loc 1 642 7 discriminator 9 view .LVU417
 1390 00c4 1432     		adds	r2, r2, #20
 1391 00c6 9342     		cmp	r3, r2
 1392 00c8 02D0     		beq	.L136
 1393              		.loc 1 642 7 view .LVU418
 1394 00ca 4FF00072 		mov	r2, #33554432
 1395 00ce 03E0     		b	.L121
 1396              	.L136:
 1397 00d0 4FF40012 		mov	r2, #2097152
 1398 00d4 00E0     		b	.L121
 1399              	.L128:
 1400 00d6 0222     		movs	r2, #2
 1401              	.L121:
 1402              		.loc 1 642 7 discriminator 24 view .LVU419
 1403 00d8 194B     		ldr	r3, .L137+4
 1404 00da 5A60     		str	r2, [r3, #4]
 1405              		.loc 1 645 5 is_stmt 1 discriminator 24 view .LVU420
 1406              		.loc 1 645 5 discriminator 24 view .LVU421
 1407 00dc 0023     		movs	r3, #0
 1408 00de 80F82030 		strb	r3, [r0, #32]
 1409              		.loc 1 645 5 discriminator 24 view .LVU422
 1410              		.loc 1 647 5 discriminator 24 view .LVU423
 1411              		.loc 1 647 12 is_stmt 0 discriminator 24 view .LVU424
 1412 00e2 836A     		ldr	r3, [r0, #40]
 1413              		.loc 1 647 7 discriminator 24 view .LVU425
 1414 00e4 002B     		cmp	r3, #0
 1415 00e6 BFD0     		beq	.L114
 1416              		.loc 1 650 7 is_stmt 1 view .LVU426
 1417 00e8 9847     		blx	r3
 1418              	.LVL69:
 1419              		.loc 1 650 7 is_stmt 0 view .LVU427
 1420 00ea BDE7     		b	.L114
 1421              	.LVL70:
 1422              	.L129:
 1423              		.loc 1 642 7 view .LVU428
 1424 00ec 2022     		movs	r2, #32
 1425 00ee F3E7     		b	.L121
 1426              	.L130:
 1427 00f0 4FF40072 		mov	r2, #512
 1428 00f4 F0E7     		b	.L121
 1429              	.L131:
 1430 00f6 4FF40052 		mov	r2, #8192
 1431 00fa EDE7     		b	.L121
 1432              	.L132:
 1433 00fc 4FF40032 		mov	r2, #131072
 1434 0100 EAE7     		b	.L121
 1435              	.LVL71:
 1436              	.L119:
 1437              		.loc 1 655 8 is_stmt 1 view .LVU429
 1438              		.loc 1 655 48 is_stmt 0 view .LVU430
 1439 0102 0823     		movs	r3, #8
 1440 0104 03FA01F1 		lsl	r1, r3, r1
 1441              		.loc 1 655 11 view .LVU431
ARM GAS  C:\Users\VD1800~1\AppData\Local\Temp\cce82BKa.s 			page 26


 1442 0108 1142     		tst	r1, r2
 1443 010a ADD0     		beq	.L114
 1444              		.loc 1 655 73 discriminator 1 view .LVU432
 1445 010c 15F0080F 		tst	r5, #8
 1446 0110 AAD0     		beq	.L114
 1447              		.loc 1 660 5 is_stmt 1 view .LVU433
 1448 0112 2368     		ldr	r3, [r4]
 1449 0114 23F00E03 		bic	r3, r3, #14
 1450 0118 2360     		str	r3, [r4]
 1451              		.loc 1 663 5 view .LVU434
 1452              		.loc 1 663 55 is_stmt 0 view .LVU435
 1453 011a 026C     		ldr	r2, [r0, #64]
 1454              	.LVL72:
 1455              		.loc 1 663 9 view .LVU436
 1456 011c C16B     		ldr	r1, [r0, #60]
 1457              		.loc 1 663 48 view .LVU437
 1458 011e 0123     		movs	r3, #1
 1459 0120 03FA02F2 		lsl	r2, r3, r2
 1460              		.loc 1 663 32 view .LVU438
 1461 0124 4A60     		str	r2, [r1, #4]
 1462              		.loc 1 666 5 is_stmt 1 view .LVU439
 1463              		.loc 1 666 21 is_stmt 0 view .LVU440
 1464 0126 8363     		str	r3, [r0, #56]
 1465              		.loc 1 669 5 is_stmt 1 view .LVU441
 1466              		.loc 1 669 17 is_stmt 0 view .LVU442
 1467 0128 80F82130 		strb	r3, [r0, #33]
 1468              		.loc 1 672 5 is_stmt 1 view .LVU443
 1469              		.loc 1 672 5 view .LVU444
 1470 012c 0023     		movs	r3, #0
 1471 012e 80F82030 		strb	r3, [r0, #32]
 1472              		.loc 1 672 5 view .LVU445
 1473              		.loc 1 674 5 view .LVU446
 1474              		.loc 1 674 13 is_stmt 0 view .LVU447
 1475 0132 036B     		ldr	r3, [r0, #48]
 1476              		.loc 1 674 8 view .LVU448
 1477 0134 002B     		cmp	r3, #0
 1478 0136 97D0     		beq	.L114
 1479              		.loc 1 677 7 is_stmt 1 view .LVU449
 1480 0138 9847     		blx	r3
 1481              	.LVL73:
 1482              		.loc 1 680 3 view .LVU450
 1483 013a 95E7     		b	.L114
 1484              	.L138:
 1485              		.align	2
 1486              	.L137:
 1487 013c 08000240 		.word	1073872904
 1488 0140 00000240 		.word	1073872896
 1489              		.cfi_endproc
 1490              	.LFE72:
 1492              		.section	.text.HAL_DMA_RegisterCallback,"ax",%progbits
 1493              		.align	1
 1494              		.global	HAL_DMA_RegisterCallback
 1495              		.syntax unified
 1496              		.thumb
 1497              		.thumb_func
 1498              		.fpu softvfp
 1500              	HAL_DMA_RegisterCallback:
ARM GAS  C:\Users\VD1800~1\AppData\Local\Temp\cce82BKa.s 			page 27


 1501              	.LVL74:
 1502              	.LFB73:
 1503              		.loc 1 694 1 view -0
 1504              		.cfi_startproc
 1505              		@ args = 0, pretend = 0, frame = 0
 1506              		@ frame_needed = 0, uses_anonymous_args = 0
 1507              		@ link register save eliminated.
 1508              		.loc 1 694 1 is_stmt 0 view .LVU452
 1509 0000 0346     		mov	r3, r0
 1510              		.loc 1 695 3 is_stmt 1 view .LVU453
 1511              	.LVL75:
 1512              		.loc 1 698 3 view .LVU454
 1513              		.loc 1 698 3 view .LVU455
 1514 0002 90F82000 		ldrb	r0, [r0, #32]	@ zero_extendqisi2
 1515              	.LVL76:
 1516              		.loc 1 698 3 is_stmt 0 view .LVU456
 1517 0006 0128     		cmp	r0, #1
 1518 0008 1DD0     		beq	.L147
 1519              		.loc 1 698 3 is_stmt 1 discriminator 2 view .LVU457
 1520 000a 0120     		movs	r0, #1
 1521 000c 83F82000 		strb	r0, [r3, #32]
 1522              		.loc 1 698 3 discriminator 2 view .LVU458
 1523              		.loc 1 700 3 discriminator 2 view .LVU459
 1524              		.loc 1 700 33 is_stmt 0 discriminator 2 view .LVU460
 1525 0010 93F82100 		ldrb	r0, [r3, #33]	@ zero_extendqisi2
 1526              		.loc 1 700 5 discriminator 2 view .LVU461
 1527 0014 0128     		cmp	r0, #1
 1528 0016 04D0     		beq	.L149
 1529              		.loc 1 727 12 view .LVU462
 1530 0018 0120     		movs	r0, #1
 1531              	.L141:
 1532              	.LVL77:
 1533              		.loc 1 731 3 is_stmt 1 view .LVU463
 1534              		.loc 1 731 3 view .LVU464
 1535 001a 0022     		movs	r2, #0
 1536              	.LVL78:
 1537              		.loc 1 731 3 is_stmt 0 view .LVU465
 1538 001c 83F82020 		strb	r2, [r3, #32]
 1539              		.loc 1 731 3 is_stmt 1 view .LVU466
 1540              		.loc 1 733 3 view .LVU467
 1541              		.loc 1 733 10 is_stmt 0 view .LVU468
 1542 0020 7047     		bx	lr
 1543              	.LVL79:
 1544              	.L149:
 1545              		.loc 1 702 5 is_stmt 1 view .LVU469
 1546 0022 0329     		cmp	r1, #3
 1547 0024 F9D8     		bhi	.L141
 1548 0026 DFE801F0 		tbb	[pc, r1]
 1549              	.L143:
 1550 002a 02       		.byte	(.L146-.L143)/2
 1551 002b 05       		.byte	(.L145-.L143)/2
 1552 002c 08       		.byte	(.L144-.L143)/2
 1553 002d 0B       		.byte	(.L142-.L143)/2
 1554              		.p2align 1
 1555              	.L146:
 1556              		.loc 1 705 7 view .LVU470
 1557              		.loc 1 705 30 is_stmt 0 view .LVU471
ARM GAS  C:\Users\VD1800~1\AppData\Local\Temp\cce82BKa.s 			page 28


 1558 002e 9A62     		str	r2, [r3, #40]
 1559              		.loc 1 706 7 is_stmt 1 view .LVU472
 1560              		.loc 1 695 21 is_stmt 0 view .LVU473
 1561 0030 0846     		mov	r0, r1
 1562              		.loc 1 706 7 view .LVU474
 1563 0032 F2E7     		b	.L141
 1564              	.L145:
 1565              		.loc 1 709 7 is_stmt 1 view .LVU475
 1566              		.loc 1 709 34 is_stmt 0 view .LVU476
 1567 0034 DA62     		str	r2, [r3, #44]
 1568              		.loc 1 710 7 is_stmt 1 view .LVU477
 1569              		.loc 1 695 21 is_stmt 0 view .LVU478
 1570 0036 0020     		movs	r0, #0
 1571              		.loc 1 710 7 view .LVU479
 1572 0038 EFE7     		b	.L141
 1573              	.L144:
 1574              		.loc 1 713 7 is_stmt 1 view .LVU480
 1575              		.loc 1 713 31 is_stmt 0 view .LVU481
 1576 003a 1A63     		str	r2, [r3, #48]
 1577              		.loc 1 714 7 is_stmt 1 view .LVU482
 1578              		.loc 1 695 21 is_stmt 0 view .LVU483
 1579 003c 0020     		movs	r0, #0
 1580              		.loc 1 714 7 view .LVU484
 1581 003e ECE7     		b	.L141
 1582              	.L142:
 1583              		.loc 1 717 7 is_stmt 1 view .LVU485
 1584              		.loc 1 717 31 is_stmt 0 view .LVU486
 1585 0040 5A63     		str	r2, [r3, #52]
 1586              		.loc 1 718 7 is_stmt 1 view .LVU487
 1587              		.loc 1 695 21 is_stmt 0 view .LVU488
 1588 0042 0020     		movs	r0, #0
 1589              		.loc 1 718 7 view .LVU489
 1590 0044 E9E7     		b	.L141
 1591              	.L147:
 1592              		.loc 1 698 3 view .LVU490
 1593 0046 0220     		movs	r0, #2
 1594              		.loc 1 734 1 view .LVU491
 1595 0048 7047     		bx	lr
 1596              		.cfi_endproc
 1597              	.LFE73:
 1599              		.section	.text.HAL_DMA_UnRegisterCallback,"ax",%progbits
 1600              		.align	1
 1601              		.global	HAL_DMA_UnRegisterCallback
 1602              		.syntax unified
 1603              		.thumb
 1604              		.thumb_func
 1605              		.fpu softvfp
 1607              	HAL_DMA_UnRegisterCallback:
 1608              	.LVL80:
 1609              	.LFB74:
 1610              		.loc 1 745 1 is_stmt 1 view -0
 1611              		.cfi_startproc
 1612              		@ args = 0, pretend = 0, frame = 0
 1613              		@ frame_needed = 0, uses_anonymous_args = 0
 1614              		@ link register save eliminated.
 1615              		.loc 1 745 1 is_stmt 0 view .LVU493
 1616 0000 0346     		mov	r3, r0
ARM GAS  C:\Users\VD1800~1\AppData\Local\Temp\cce82BKa.s 			page 29


 1617              		.loc 1 746 3 is_stmt 1 view .LVU494
 1618              	.LVL81:
 1619              		.loc 1 749 3 view .LVU495
 1620              		.loc 1 749 3 view .LVU496
 1621 0002 90F82020 		ldrb	r2, [r0, #32]	@ zero_extendqisi2
 1622 0006 012A     		cmp	r2, #1
 1623 0008 25D0     		beq	.L159
 1624              		.loc 1 749 3 discriminator 2 view .LVU497
 1625 000a 0122     		movs	r2, #1
 1626 000c 80F82020 		strb	r2, [r0, #32]
 1627              		.loc 1 749 3 discriminator 2 view .LVU498
 1628              		.loc 1 751 3 discriminator 2 view .LVU499
 1629              		.loc 1 751 33 is_stmt 0 discriminator 2 view .LVU500
 1630 0010 90F82100 		ldrb	r0, [r0, #33]	@ zero_extendqisi2
 1631              	.LVL82:
 1632              		.loc 1 751 5 discriminator 2 view .LVU501
 1633 0014 9042     		cmp	r0, r2
 1634 0016 04D0     		beq	.L161
 1635              		.loc 1 785 12 view .LVU502
 1636 0018 0120     		movs	r0, #1
 1637              	.L152:
 1638              	.LVL83:
 1639              		.loc 1 789 3 is_stmt 1 view .LVU503
 1640              		.loc 1 789 3 view .LVU504
 1641 001a 0022     		movs	r2, #0
 1642 001c 83F82020 		strb	r2, [r3, #32]
 1643              		.loc 1 789 3 view .LVU505
 1644              		.loc 1 791 3 view .LVU506
 1645              		.loc 1 791 10 is_stmt 0 view .LVU507
 1646 0020 7047     		bx	lr
 1647              	.LVL84:
 1648              	.L161:
 1649              		.loc 1 753 5 is_stmt 1 view .LVU508
 1650 0022 0429     		cmp	r1, #4
 1651 0024 F9D8     		bhi	.L152
 1652 0026 DFE801F0 		tbb	[pc, r1]
 1653              	.L154:
 1654 002a 03       		.byte	(.L158-.L154)/2
 1655 002b 07       		.byte	(.L157-.L154)/2
 1656 002c 0A       		.byte	(.L156-.L154)/2
 1657 002d 0D       		.byte	(.L155-.L154)/2
 1658 002e 10       		.byte	(.L153-.L154)/2
 1659 002f 00       		.p2align 1
 1660              	.L158:
 1661              		.loc 1 756 7 view .LVU509
 1662              		.loc 1 756 30 is_stmt 0 view .LVU510
 1663 0030 0022     		movs	r2, #0
 1664 0032 9A62     		str	r2, [r3, #40]
 1665              		.loc 1 757 7 is_stmt 1 view .LVU511
 1666              		.loc 1 746 21 is_stmt 0 view .LVU512
 1667 0034 0846     		mov	r0, r1
 1668              		.loc 1 757 7 view .LVU513
 1669 0036 F0E7     		b	.L152
 1670              	.L157:
 1671              		.loc 1 760 7 is_stmt 1 view .LVU514
 1672              		.loc 1 760 34 is_stmt 0 view .LVU515
 1673 0038 0020     		movs	r0, #0
ARM GAS  C:\Users\VD1800~1\AppData\Local\Temp\cce82BKa.s 			page 30


 1674 003a D862     		str	r0, [r3, #44]
 1675              		.loc 1 761 7 is_stmt 1 view .LVU516
 1676 003c EDE7     		b	.L152
 1677              	.L156:
 1678              		.loc 1 764 7 view .LVU517
 1679              		.loc 1 764 31 is_stmt 0 view .LVU518
 1680 003e 0020     		movs	r0, #0
 1681 0040 1863     		str	r0, [r3, #48]
 1682              		.loc 1 765 7 is_stmt 1 view .LVU519
 1683 0042 EAE7     		b	.L152
 1684              	.L155:
 1685              		.loc 1 768 7 view .LVU520
 1686              		.loc 1 768 31 is_stmt 0 view .LVU521
 1687 0044 0020     		movs	r0, #0
 1688 0046 5863     		str	r0, [r3, #52]
 1689              		.loc 1 769 7 is_stmt 1 view .LVU522
 1690 0048 E7E7     		b	.L152
 1691              	.L153:
 1692              		.loc 1 772 7 view .LVU523
 1693              		.loc 1 772 30 is_stmt 0 view .LVU524
 1694 004a 0020     		movs	r0, #0
 1695 004c 9862     		str	r0, [r3, #40]
 1696              		.loc 1 773 7 is_stmt 1 view .LVU525
 1697              		.loc 1 773 34 is_stmt 0 view .LVU526
 1698 004e D862     		str	r0, [r3, #44]
 1699              		.loc 1 774 7 is_stmt 1 view .LVU527
 1700              		.loc 1 774 31 is_stmt 0 view .LVU528
 1701 0050 1863     		str	r0, [r3, #48]
 1702              		.loc 1 775 7 is_stmt 1 view .LVU529
 1703              		.loc 1 775 31 is_stmt 0 view .LVU530
 1704 0052 5863     		str	r0, [r3, #52]
 1705              		.loc 1 776 7 is_stmt 1 view .LVU531
 1706 0054 E1E7     		b	.L152
 1707              	.LVL85:
 1708              	.L159:
 1709              		.loc 1 749 3 is_stmt 0 view .LVU532
 1710 0056 0220     		movs	r0, #2
 1711              	.LVL86:
 1712              		.loc 1 792 1 view .LVU533
 1713 0058 7047     		bx	lr
 1714              		.cfi_endproc
 1715              	.LFE74:
 1717              		.section	.text.HAL_DMA_GetState,"ax",%progbits
 1718              		.align	1
 1719              		.global	HAL_DMA_GetState
 1720              		.syntax unified
 1721              		.thumb
 1722              		.thumb_func
 1723              		.fpu softvfp
 1725              	HAL_DMA_GetState:
 1726              	.LVL87:
 1727              	.LFB75:
 1728              		.loc 1 821 1 is_stmt 1 view -0
 1729              		.cfi_startproc
 1730              		@ args = 0, pretend = 0, frame = 0
 1731              		@ frame_needed = 0, uses_anonymous_args = 0
 1732              		@ link register save eliminated.
ARM GAS  C:\Users\VD1800~1\AppData\Local\Temp\cce82BKa.s 			page 31


 1733              		.loc 1 823 3 view .LVU535
 1734              		.loc 1 824 1 is_stmt 0 view .LVU536
 1735 0000 90F82100 		ldrb	r0, [r0, #33]	@ zero_extendqisi2
 1736              	.LVL88:
 1737              		.loc 1 824 1 view .LVU537
 1738 0004 7047     		bx	lr
 1739              		.cfi_endproc
 1740              	.LFE75:
 1742              		.section	.text.HAL_DMA_GetError,"ax",%progbits
 1743              		.align	1
 1744              		.global	HAL_DMA_GetError
 1745              		.syntax unified
 1746              		.thumb
 1747              		.thumb_func
 1748              		.fpu softvfp
 1750              	HAL_DMA_GetError:
 1751              	.LVL89:
 1752              	.LFB76:
 1753              		.loc 1 833 1 is_stmt 1 view -0
 1754              		.cfi_startproc
 1755              		@ args = 0, pretend = 0, frame = 0
 1756              		@ frame_needed = 0, uses_anonymous_args = 0
 1757              		@ link register save eliminated.
 1758              		.loc 1 834 3 view .LVU539
 1759              		.loc 1 834 14 is_stmt 0 view .LVU540
 1760 0000 806B     		ldr	r0, [r0, #56]
 1761              	.LVL90:
 1762              		.loc 1 835 1 view .LVU541
 1763 0002 7047     		bx	lr
 1764              		.cfi_endproc
 1765              	.LFE76:
 1767              		.text
 1768              	.Letext0:
 1769              		.file 2 "../c:\\users\\vd180005d\\desktop\\mips\\gnu mcu\\arm-none-eabi-gcc-10.2.1-1.1\\arm-none-e
 1770              		.file 3 "../c:\\users\\vd180005d\\desktop\\mips\\gnu mcu\\arm-none-eabi-gcc-10.2.1-1.1\\arm-none-e
 1771              		.file 4 "../Drivers/CMSIS/Device/ST/STM32F1xx/Include/stm32f103x6.h"
 1772              		.file 5 "../Drivers/CMSIS/Device/ST/STM32F1xx/Include/stm32f1xx.h"
 1773              		.file 6 "../Drivers/STM32F1xx_HAL_Driver/Inc/stm32f1xx_hal_def.h"
 1774              		.file 7 "../Drivers/STM32F1xx_HAL_Driver/Inc/stm32f1xx_hal_dma.h"
 1775              		.file 8 "../Drivers/STM32F1xx_HAL_Driver/Inc/stm32f1xx_hal.h"
ARM GAS  C:\Users\VD1800~1\AppData\Local\Temp\cce82BKa.s 			page 32

