ARM GAS  C:\Users\VD1800~1\AppData\Local\Temp\ccDsqLwg.s 			page 1


   1              		.cpu cortex-m3
   2              		.eabi_attribute 20, 1
   3              		.eabi_attribute 21, 1
   4              		.eabi_attribute 23, 3
   5              		.eabi_attribute 24, 1
   6              		.eabi_attribute 25, 1
   7              		.eabi_attribute 26, 1
   8              		.eabi_attribute 30, 1
   9              		.eabi_attribute 34, 1
  10              		.eabi_attribute 18, 4
  11              		.file	"tim.c"
  12              		.text
  13              	.Ltext0:
  14              		.cfi_sections	.debug_frame
  15              		.section	.text.MX_TIM3_Init,"ax",%progbits
  16              		.align	1
  17              		.global	MX_TIM3_Init
  18              		.arch armv7-m
  19              		.syntax unified
  20              		.thumb
  21              		.thumb_func
  22              		.fpu softvfp
  24              	MX_TIM3_Init:
  25              	.LFB66:
  26              		.file 1 "../Core/Src/tim.c"
   1:../Core/Src/tim.c **** 
  27              		.loc 1 102 1 view -0
  28              		.cfi_startproc
  29              		@ args = 0, pretend = 0, frame = 40
  30              		@ frame_needed = 0, uses_anonymous_args = 0
  31 0000 00B5     		push	{lr}
  32              	.LCFI0:
  33              		.cfi_def_cfa_offset 4
  34              		.cfi_offset 14, -4
  35 0002 8BB0     		sub	sp, sp, #44
  36              	.LCFI1:
  37              		.cfi_def_cfa_offset 48
  38              		.loc 1 108 3 view .LVU1
  39              		.loc 1 108 26 is_stmt 0 view .LVU2
  40 0004 0023     		movs	r3, #0
  41 0006 0693     		str	r3, [sp, #24]
  42 0008 0793     		str	r3, [sp, #28]
  43 000a 0893     		str	r3, [sp, #32]
  44 000c 0993     		str	r3, [sp, #36]
  45              		.loc 1 109 3 is_stmt 1 view .LVU3
  46              		.loc 1 109 27 is_stmt 0 view .LVU4
  47 000e 0493     		str	r3, [sp, #16]
  48 0010 0593     		str	r3, [sp, #20]
  49              		.loc 1 110 3 is_stmt 1 view .LVU5
  50              		.loc 1 110 22 is_stmt 0 view .LVU6
  51 0012 0093     		str	r3, [sp]
  52 0014 0193     		str	r3, [sp, #4]
  53 0016 0293     		str	r3, [sp, #8]
  54 0018 0393     		str	r3, [sp, #12]
  55              		.loc 1 115 3 is_stmt 1 view .LVU7
  56              		.loc 1 115 18 is_stmt 0 view .LVU8
  57 001a 2448     		ldr	r0, .L15
ARM GAS  C:\Users\VD1800~1\AppData\Local\Temp\ccDsqLwg.s 			page 2


  58 001c 244A     		ldr	r2, .L15+4
  59 001e 0260     		str	r2, [r0]
  60              		.loc 1 116 3 is_stmt 1 view .LVU9
  61              		.loc 1 116 24 is_stmt 0 view .LVU10
  62 0020 4360     		str	r3, [r0, #4]
  63              		.loc 1 117 3 is_stmt 1 view .LVU11
  64              		.loc 1 117 26 is_stmt 0 view .LVU12
  65 0022 8360     		str	r3, [r0, #8]
  66              		.loc 1 118 3 is_stmt 1 view .LVU13
  67              		.loc 1 118 21 is_stmt 0 view .LVU14
  68 0024 4FF6FF72 		movw	r2, #65535
  69 0028 C260     		str	r2, [r0, #12]
  70              		.loc 1 119 3 is_stmt 1 view .LVU15
  71              		.loc 1 119 28 is_stmt 0 view .LVU16
  72 002a 0361     		str	r3, [r0, #16]
  73              		.loc 1 120 3 is_stmt 1 view .LVU17
  74              		.loc 1 120 32 is_stmt 0 view .LVU18
  75 002c 8361     		str	r3, [r0, #24]
  76              		.loc 1 121 3 is_stmt 1 view .LVU19
  77              		.loc 1 121 7 is_stmt 0 view .LVU20
  78 002e FFF7FEFF 		bl	HAL_TIM_Base_Init
  79              	.LVL0:
  80              		.loc 1 121 6 view .LVU21
  81 0032 48BB     		cbnz	r0, .L9
  82              	.L2:
  83              		.loc 1 125 3 is_stmt 1 view .LVU22
  84              		.loc 1 125 34 is_stmt 0 view .LVU23
  85 0034 4FF48053 		mov	r3, #4096
  86 0038 0693     		str	r3, [sp, #24]
  87              		.loc 1 126 3 is_stmt 1 view .LVU24
  88              		.loc 1 126 7 is_stmt 0 view .LVU25
  89 003a 06A9     		add	r1, sp, #24
  90 003c 1B48     		ldr	r0, .L15
  91 003e FFF7FEFF 		bl	HAL_TIM_ConfigClockSource
  92              	.LVL1:
  93              		.loc 1 126 6 view .LVU26
  94 0042 20BB     		cbnz	r0, .L10
  95              	.L3:
  96              		.loc 1 130 3 is_stmt 1 view .LVU27
  97              		.loc 1 130 7 is_stmt 0 view .LVU28
  98 0044 1948     		ldr	r0, .L15
  99 0046 FFF7FEFF 		bl	HAL_TIM_IC_Init
 100              	.LVL2:
 101              		.loc 1 130 6 view .LVU29
 102 004a 18BB     		cbnz	r0, .L11
 103              	.L4:
 104              		.loc 1 134 3 is_stmt 1 view .LVU30
 105              		.loc 1 134 37 is_stmt 0 view .LVU31
 106 004c 0023     		movs	r3, #0
 107 004e 0493     		str	r3, [sp, #16]
 108              		.loc 1 135 3 is_stmt 1 view .LVU32
 109              		.loc 1 135 33 is_stmt 0 view .LVU33
 110 0050 0593     		str	r3, [sp, #20]
 111              		.loc 1 136 3 is_stmt 1 view .LVU34
 112              		.loc 1 136 7 is_stmt 0 view .LVU35
 113 0052 04A9     		add	r1, sp, #16
 114 0054 1548     		ldr	r0, .L15
ARM GAS  C:\Users\VD1800~1\AppData\Local\Temp\ccDsqLwg.s 			page 3


 115 0056 FFF7FEFF 		bl	HAL_TIMEx_MasterConfigSynchronization
 116              	.LVL3:
 117              		.loc 1 136 6 view .LVU36
 118 005a F0B9     		cbnz	r0, .L12
 119              	.L5:
 120              		.loc 1 140 3 is_stmt 1 view .LVU37
 121              		.loc 1 140 24 is_stmt 0 view .LVU38
 122 005c 0022     		movs	r2, #0
 123 005e 0092     		str	r2, [sp]
 124              		.loc 1 141 3 is_stmt 1 view .LVU39
 125              		.loc 1 141 25 is_stmt 0 view .LVU40
 126 0060 0123     		movs	r3, #1
 127 0062 0193     		str	r3, [sp, #4]
 128              		.loc 1 142 3 is_stmt 1 view .LVU41
 129              		.loc 1 142 25 is_stmt 0 view .LVU42
 130 0064 0292     		str	r2, [sp, #8]
 131              		.loc 1 143 3 is_stmt 1 view .LVU43
 132              		.loc 1 143 22 is_stmt 0 view .LVU44
 133 0066 0392     		str	r2, [sp, #12]
 134              		.loc 1 144 3 is_stmt 1 view .LVU45
 135              		.loc 1 144 7 is_stmt 0 view .LVU46
 136 0068 6946     		mov	r1, sp
 137 006a 1048     		ldr	r0, .L15
 138 006c FFF7FEFF 		bl	HAL_TIM_IC_ConfigChannel
 139              	.LVL4:
 140              		.loc 1 144 6 view .LVU47
 141 0070 B0B9     		cbnz	r0, .L13
 142              	.L6:
 143              		.loc 1 148 3 is_stmt 1 view .LVU48
 144              		.loc 1 148 24 is_stmt 0 view .LVU49
 145 0072 0223     		movs	r3, #2
 146 0074 0093     		str	r3, [sp]
 147              		.loc 1 149 3 is_stmt 1 view .LVU50
 148              		.loc 1 149 7 is_stmt 0 view .LVU51
 149 0076 0422     		movs	r2, #4
 150 0078 6946     		mov	r1, sp
 151 007a 0C48     		ldr	r0, .L15
 152 007c FFF7FEFF 		bl	HAL_TIM_IC_ConfigChannel
 153              	.LVL5:
 154              		.loc 1 149 6 view .LVU52
 155 0080 88B9     		cbnz	r0, .L14
 156              	.L1:
 157              		.loc 1 157 1 view .LVU53
 158 0082 0BB0     		add	sp, sp, #44
 159              	.LCFI2:
 160              		.cfi_remember_state
 161              		.cfi_def_cfa_offset 4
 162              		@ sp needed
 163 0084 5DF804FB 		ldr	pc, [sp], #4
 164              	.L9:
 165              	.LCFI3:
 166              		.cfi_restore_state
 167              		.loc 1 123 5 is_stmt 1 view .LVU54
 168 0088 FFF7FEFF 		bl	Error_Handler
 169              	.LVL6:
 170 008c D2E7     		b	.L2
 171              	.L10:
ARM GAS  C:\Users\VD1800~1\AppData\Local\Temp\ccDsqLwg.s 			page 4


 172              		.loc 1 128 5 view .LVU55
 173 008e FFF7FEFF 		bl	Error_Handler
 174              	.LVL7:
 175 0092 D7E7     		b	.L3
 176              	.L11:
 177              		.loc 1 132 5 view .LVU56
 178 0094 FFF7FEFF 		bl	Error_Handler
 179              	.LVL8:
 180 0098 D8E7     		b	.L4
 181              	.L12:
 182              		.loc 1 138 5 view .LVU57
 183 009a FFF7FEFF 		bl	Error_Handler
 184              	.LVL9:
 185 009e DDE7     		b	.L5
 186              	.L13:
 187              		.loc 1 146 5 view .LVU58
 188 00a0 FFF7FEFF 		bl	Error_Handler
 189              	.LVL10:
 190 00a4 E5E7     		b	.L6
 191              	.L14:
 192              		.loc 1 151 5 view .LVU59
 193 00a6 FFF7FEFF 		bl	Error_Handler
 194              	.LVL11:
 195              		.loc 1 157 1 is_stmt 0 view .LVU60
 196 00aa EAE7     		b	.L1
 197              	.L16:
 198              		.align	2
 199              	.L15:
 200 00ac 00000000 		.word	.LANCHOR0
 201 00b0 00040040 		.word	1073742848
 202              		.cfi_endproc
 203              	.LFE66:
 205              		.section	.text.HAL_TIM_Base_MspInit,"ax",%progbits
 206              		.align	1
 207              		.global	HAL_TIM_Base_MspInit
 208              		.syntax unified
 209              		.thumb
 210              		.thumb_func
 211              		.fpu softvfp
 213              	HAL_TIM_Base_MspInit:
 214              	.LVL12:
 215              	.LFB67:
 216              		.loc 1 160 1 is_stmt 1 view -0
 217              		.cfi_startproc
 218              		@ args = 0, pretend = 0, frame = 32
 219              		@ frame_needed = 0, uses_anonymous_args = 0
 220              		.loc 1 160 1 is_stmt 0 view .LVU62
 221 0000 00B5     		push	{lr}
 222              	.LCFI4:
 223              		.cfi_def_cfa_offset 4
 224              		.cfi_offset 14, -4
 225 0002 89B0     		sub	sp, sp, #36
 226              	.LCFI5:
 227              		.cfi_def_cfa_offset 40
 228              		.loc 1 162 3 is_stmt 1 view .LVU63
 229              		.loc 1 162 20 is_stmt 0 view .LVU64
 230 0004 0023     		movs	r3, #0
ARM GAS  C:\Users\VD1800~1\AppData\Local\Temp\ccDsqLwg.s 			page 5


 231 0006 0493     		str	r3, [sp, #16]
 232 0008 0593     		str	r3, [sp, #20]
 233 000a 0693     		str	r3, [sp, #24]
 234 000c 0793     		str	r3, [sp, #28]
 235              		.loc 1 163 3 is_stmt 1 view .LVU65
 236              		.loc 1 163 20 is_stmt 0 view .LVU66
 237 000e 0368     		ldr	r3, [r0]
 238              		.loc 1 163 5 view .LVU67
 239 0010 1E4A     		ldr	r2, .L23
 240 0012 9342     		cmp	r3, r2
 241 0014 05D0     		beq	.L21
 242              		.loc 1 178 8 is_stmt 1 view .LVU68
 243              		.loc 1 178 10 is_stmt 0 view .LVU69
 244 0016 1E4A     		ldr	r2, .L23+4
 245 0018 9342     		cmp	r3, r2
 246 001a 15D0     		beq	.L22
 247              	.LVL13:
 248              	.L17:
 249              		.loc 1 203 1 view .LVU70
 250 001c 09B0     		add	sp, sp, #36
 251              	.LCFI6:
 252              		.cfi_remember_state
 253              		.cfi_def_cfa_offset 4
 254              		@ sp needed
 255 001e 5DF804FB 		ldr	pc, [sp], #4
 256              	.LVL14:
 257              	.L21:
 258              	.LCFI7:
 259              		.cfi_restore_state
 260              		.loc 1 169 5 is_stmt 1 view .LVU71
 261              	.LBB2:
 262              		.loc 1 169 5 view .LVU72
 263              		.loc 1 169 5 view .LVU73
 264 0022 1C4B     		ldr	r3, .L23+8
 265 0024 9A69     		ldr	r2, [r3, #24]
 266 0026 42F40062 		orr	r2, r2, #2048
 267 002a 9A61     		str	r2, [r3, #24]
 268              		.loc 1 169 5 view .LVU74
 269 002c 9B69     		ldr	r3, [r3, #24]
 270 002e 03F40063 		and	r3, r3, #2048
 271 0032 0193     		str	r3, [sp, #4]
 272              		.loc 1 169 5 view .LVU75
 273 0034 019B     		ldr	r3, [sp, #4]
 274              	.LBE2:
 275              		.loc 1 169 5 view .LVU76
 276              		.loc 1 172 5 view .LVU77
 277 0036 0022     		movs	r2, #0
 278 0038 1146     		mov	r1, r2
 279 003a 1920     		movs	r0, #25
 280              	.LVL15:
 281              		.loc 1 172 5 is_stmt 0 view .LVU78
 282 003c FFF7FEFF 		bl	HAL_NVIC_SetPriority
 283              	.LVL16:
 284              		.loc 1 173 5 is_stmt 1 view .LVU79
 285 0040 1920     		movs	r0, #25
 286 0042 FFF7FEFF 		bl	HAL_NVIC_EnableIRQ
 287              	.LVL17:
ARM GAS  C:\Users\VD1800~1\AppData\Local\Temp\ccDsqLwg.s 			page 6


 288 0046 E9E7     		b	.L17
 289              	.LVL18:
 290              	.L22:
 291              		.loc 1 184 5 view .LVU80
 292              	.LBB3:
 293              		.loc 1 184 5 view .LVU81
 294              		.loc 1 184 5 view .LVU82
 295 0048 124B     		ldr	r3, .L23+8
 296 004a DA69     		ldr	r2, [r3, #28]
 297 004c 42F00202 		orr	r2, r2, #2
 298 0050 DA61     		str	r2, [r3, #28]
 299              		.loc 1 184 5 view .LVU83
 300 0052 DA69     		ldr	r2, [r3, #28]
 301 0054 02F00202 		and	r2, r2, #2
 302 0058 0292     		str	r2, [sp, #8]
 303              		.loc 1 184 5 view .LVU84
 304 005a 029A     		ldr	r2, [sp, #8]
 305              	.LBE3:
 306              		.loc 1 184 5 view .LVU85
 307              		.loc 1 186 5 view .LVU86
 308              	.LBB4:
 309              		.loc 1 186 5 view .LVU87
 310              		.loc 1 186 5 view .LVU88
 311 005c 9A69     		ldr	r2, [r3, #24]
 312 005e 42F00402 		orr	r2, r2, #4
 313 0062 9A61     		str	r2, [r3, #24]
 314              		.loc 1 186 5 view .LVU89
 315 0064 9B69     		ldr	r3, [r3, #24]
 316 0066 03F00403 		and	r3, r3, #4
 317 006a 0393     		str	r3, [sp, #12]
 318              		.loc 1 186 5 view .LVU90
 319 006c 039B     		ldr	r3, [sp, #12]
 320              	.LBE4:
 321              		.loc 1 186 5 view .LVU91
 322              		.loc 1 191 5 view .LVU92
 323              		.loc 1 191 25 is_stmt 0 view .LVU93
 324 006e C023     		movs	r3, #192
 325 0070 0493     		str	r3, [sp, #16]
 326              		.loc 1 192 5 is_stmt 1 view .LVU94
 327              		.loc 1 193 5 view .LVU95
 328              		.loc 1 194 5 view .LVU96
 329 0072 04A9     		add	r1, sp, #16
 330 0074 0848     		ldr	r0, .L23+12
 331              	.LVL19:
 332              		.loc 1 194 5 is_stmt 0 view .LVU97
 333 0076 FFF7FEFF 		bl	HAL_GPIO_Init
 334              	.LVL20:
 335              		.loc 1 197 5 is_stmt 1 view .LVU98
 336 007a 0022     		movs	r2, #0
 337 007c 1146     		mov	r1, r2
 338 007e 1D20     		movs	r0, #29
 339 0080 FFF7FEFF 		bl	HAL_NVIC_SetPriority
 340              	.LVL21:
 341              		.loc 1 198 5 view .LVU99
 342 0084 1D20     		movs	r0, #29
 343 0086 FFF7FEFF 		bl	HAL_NVIC_EnableIRQ
 344              	.LVL22:
ARM GAS  C:\Users\VD1800~1\AppData\Local\Temp\ccDsqLwg.s 			page 7


 345              		.loc 1 203 1 is_stmt 0 view .LVU100
 346 008a C7E7     		b	.L17
 347              	.L24:
 348              		.align	2
 349              	.L23:
 350 008c 002C0140 		.word	1073818624
 351 0090 00040040 		.word	1073742848
 352 0094 00100240 		.word	1073876992
 353 0098 00080140 		.word	1073809408
 354              		.cfi_endproc
 355              	.LFE67:
 357              		.section	.text.HAL_TIM_MspPostInit,"ax",%progbits
 358              		.align	1
 359              		.global	HAL_TIM_MspPostInit
 360              		.syntax unified
 361              		.thumb
 362              		.thumb_func
 363              		.fpu softvfp
 365              	HAL_TIM_MspPostInit:
 366              	.LVL23:
 367              	.LFB68:
 368              		.loc 1 205 1 is_stmt 1 view -0
 369              		.cfi_startproc
 370              		@ args = 0, pretend = 0, frame = 24
 371              		@ frame_needed = 0, uses_anonymous_args = 0
 372              		.loc 1 205 1 is_stmt 0 view .LVU102
 373 0000 00B5     		push	{lr}
 374              	.LCFI8:
 375              		.cfi_def_cfa_offset 4
 376              		.cfi_offset 14, -4
 377 0002 87B0     		sub	sp, sp, #28
 378              	.LCFI9:
 379              		.cfi_def_cfa_offset 32
 380              		.loc 1 207 3 is_stmt 1 view .LVU103
 381              		.loc 1 207 20 is_stmt 0 view .LVU104
 382 0004 0023     		movs	r3, #0
 383 0006 0293     		str	r3, [sp, #8]
 384 0008 0393     		str	r3, [sp, #12]
 385 000a 0493     		str	r3, [sp, #16]
 386 000c 0593     		str	r3, [sp, #20]
 387              		.loc 1 208 3 is_stmt 1 view .LVU105
 388              		.loc 1 208 15 is_stmt 0 view .LVU106
 389 000e 0268     		ldr	r2, [r0]
 390              		.loc 1 208 5 view .LVU107
 391 0010 0D4B     		ldr	r3, .L29
 392 0012 9A42     		cmp	r2, r3
 393 0014 02D0     		beq	.L28
 394              	.LVL24:
 395              	.L25:
 396              		.loc 1 228 1 view .LVU108
 397 0016 07B0     		add	sp, sp, #28
 398              	.LCFI10:
 399              		.cfi_remember_state
 400              		.cfi_def_cfa_offset 4
 401              		@ sp needed
 402 0018 5DF804FB 		ldr	pc, [sp], #4
 403              	.LVL25:
ARM GAS  C:\Users\VD1800~1\AppData\Local\Temp\ccDsqLwg.s 			page 8


 404              	.L28:
 405              	.LCFI11:
 406              		.cfi_restore_state
 407              		.loc 1 214 5 is_stmt 1 view .LVU109
 408              	.LBB5:
 409              		.loc 1 214 5 view .LVU110
 410              		.loc 1 214 5 view .LVU111
 411 001c 03F56443 		add	r3, r3, #58368
 412 0020 9A69     		ldr	r2, [r3, #24]
 413 0022 42F00402 		orr	r2, r2, #4
 414 0026 9A61     		str	r2, [r3, #24]
 415              		.loc 1 214 5 view .LVU112
 416 0028 9B69     		ldr	r3, [r3, #24]
 417 002a 03F00403 		and	r3, r3, #4
 418 002e 0193     		str	r3, [sp, #4]
 419              		.loc 1 214 5 view .LVU113
 420 0030 019B     		ldr	r3, [sp, #4]
 421              	.LBE5:
 422              		.loc 1 214 5 view .LVU114
 423              		.loc 1 218 5 view .LVU115
 424              		.loc 1 218 25 is_stmt 0 view .LVU116
 425 0032 4FF48073 		mov	r3, #256
 426 0036 0293     		str	r3, [sp, #8]
 427              		.loc 1 219 5 is_stmt 1 view .LVU117
 428              		.loc 1 219 26 is_stmt 0 view .LVU118
 429 0038 0223     		movs	r3, #2
 430 003a 0393     		str	r3, [sp, #12]
 431              		.loc 1 220 5 is_stmt 1 view .LVU119
 432              		.loc 1 220 27 is_stmt 0 view .LVU120
 433 003c 0593     		str	r3, [sp, #20]
 434              		.loc 1 221 5 is_stmt 1 view .LVU121
 435 003e 02A9     		add	r1, sp, #8
 436 0040 0248     		ldr	r0, .L29+4
 437              	.LVL26:
 438              		.loc 1 221 5 is_stmt 0 view .LVU122
 439 0042 FFF7FEFF 		bl	HAL_GPIO_Init
 440              	.LVL27:
 441              		.loc 1 228 1 view .LVU123
 442 0046 E6E7     		b	.L25
 443              	.L30:
 444              		.align	2
 445              	.L29:
 446 0048 002C0140 		.word	1073818624
 447 004c 00080140 		.word	1073809408
 448              		.cfi_endproc
 449              	.LFE68:
 451              		.section	.text.MX_TIM1_Init,"ax",%progbits
 452              		.align	1
 453              		.global	MX_TIM1_Init
 454              		.syntax unified
 455              		.thumb
 456              		.thumb_func
 457              		.fpu softvfp
 459              	MX_TIM1_Init:
 460              	.LFB65:
 461              		.loc 1 32 1 is_stmt 1 view -0
 462              		.cfi_startproc
ARM GAS  C:\Users\VD1800~1\AppData\Local\Temp\ccDsqLwg.s 			page 9


 463              		@ args = 0, pretend = 0, frame = 88
 464              		@ frame_needed = 0, uses_anonymous_args = 0
 465 0000 10B5     		push	{r4, lr}
 466              	.LCFI12:
 467              		.cfi_def_cfa_offset 8
 468              		.cfi_offset 4, -8
 469              		.cfi_offset 14, -4
 470 0002 96B0     		sub	sp, sp, #88
 471              	.LCFI13:
 472              		.cfi_def_cfa_offset 96
 473              		.loc 1 38 3 view .LVU125
 474              		.loc 1 38 26 is_stmt 0 view .LVU126
 475 0004 0024     		movs	r4, #0
 476 0006 1294     		str	r4, [sp, #72]
 477 0008 1394     		str	r4, [sp, #76]
 478 000a 1494     		str	r4, [sp, #80]
 479 000c 1594     		str	r4, [sp, #84]
 480              		.loc 1 39 3 is_stmt 1 view .LVU127
 481              		.loc 1 39 27 is_stmt 0 view .LVU128
 482 000e 1094     		str	r4, [sp, #64]
 483 0010 1194     		str	r4, [sp, #68]
 484              		.loc 1 40 3 is_stmt 1 view .LVU129
 485              		.loc 1 40 22 is_stmt 0 view .LVU130
 486 0012 0994     		str	r4, [sp, #36]
 487 0014 0A94     		str	r4, [sp, #40]
 488 0016 0B94     		str	r4, [sp, #44]
 489 0018 0C94     		str	r4, [sp, #48]
 490 001a 0D94     		str	r4, [sp, #52]
 491 001c 0E94     		str	r4, [sp, #56]
 492 001e 0F94     		str	r4, [sp, #60]
 493              		.loc 1 41 3 is_stmt 1 view .LVU131
 494              		.loc 1 41 34 is_stmt 0 view .LVU132
 495 0020 2022     		movs	r2, #32
 496 0022 2146     		mov	r1, r4
 497 0024 01A8     		add	r0, sp, #4
 498 0026 FFF7FEFF 		bl	memset
 499              	.LVL28:
 500              		.loc 1 46 3 is_stmt 1 view .LVU133
 501              		.loc 1 46 18 is_stmt 0 view .LVU134
 502 002a 2D48     		ldr	r0, .L45
 503 002c 2D4B     		ldr	r3, .L45+4
 504 002e 0360     		str	r3, [r0]
 505              		.loc 1 47 3 is_stmt 1 view .LVU135
 506              		.loc 1 47 24 is_stmt 0 view .LVU136
 507 0030 40F2E733 		movw	r3, #999
 508 0034 4360     		str	r3, [r0, #4]
 509              		.loc 1 48 3 is_stmt 1 view .LVU137
 510              		.loc 1 48 26 is_stmt 0 view .LVU138
 511 0036 8460     		str	r4, [r0, #8]
 512              		.loc 1 49 3 is_stmt 1 view .LVU139
 513              		.loc 1 49 21 is_stmt 0 view .LVU140
 514 0038 4F23     		movs	r3, #79
 515 003a C360     		str	r3, [r0, #12]
 516              		.loc 1 50 3 is_stmt 1 view .LVU141
 517              		.loc 1 50 28 is_stmt 0 view .LVU142
 518 003c 0461     		str	r4, [r0, #16]
 519              		.loc 1 51 3 is_stmt 1 view .LVU143
ARM GAS  C:\Users\VD1800~1\AppData\Local\Temp\ccDsqLwg.s 			page 10


 520              		.loc 1 51 32 is_stmt 0 view .LVU144
 521 003e 4461     		str	r4, [r0, #20]
 522              		.loc 1 52 3 is_stmt 1 view .LVU145
 523              		.loc 1 52 32 is_stmt 0 view .LVU146
 524 0040 8461     		str	r4, [r0, #24]
 525              		.loc 1 53 3 is_stmt 1 view .LVU147
 526              		.loc 1 53 7 is_stmt 0 view .LVU148
 527 0042 FFF7FEFF 		bl	HAL_TIM_Base_Init
 528              	.LVL29:
 529              		.loc 1 53 6 view .LVU149
 530 0046 0028     		cmp	r0, #0
 531 0048 38D1     		bne	.L39
 532              	.L32:
 533              		.loc 1 57 3 is_stmt 1 view .LVU150
 534              		.loc 1 57 34 is_stmt 0 view .LVU151
 535 004a 4FF48053 		mov	r3, #4096
 536 004e 1293     		str	r3, [sp, #72]
 537              		.loc 1 58 3 is_stmt 1 view .LVU152
 538              		.loc 1 58 7 is_stmt 0 view .LVU153
 539 0050 12A9     		add	r1, sp, #72
 540 0052 2348     		ldr	r0, .L45
 541 0054 FFF7FEFF 		bl	HAL_TIM_ConfigClockSource
 542              	.LVL30:
 543              		.loc 1 58 6 view .LVU154
 544 0058 0028     		cmp	r0, #0
 545 005a 32D1     		bne	.L40
 546              	.L33:
 547              		.loc 1 62 3 is_stmt 1 view .LVU155
 548              		.loc 1 62 7 is_stmt 0 view .LVU156
 549 005c 2048     		ldr	r0, .L45
 550 005e FFF7FEFF 		bl	HAL_TIM_PWM_Init
 551              	.LVL31:
 552              		.loc 1 62 6 view .LVU157
 553 0062 0028     		cmp	r0, #0
 554 0064 30D1     		bne	.L41
 555              	.L34:
 556              		.loc 1 66 3 is_stmt 1 view .LVU158
 557              		.loc 1 66 37 is_stmt 0 view .LVU159
 558 0066 0023     		movs	r3, #0
 559 0068 1093     		str	r3, [sp, #64]
 560              		.loc 1 67 3 is_stmt 1 view .LVU160
 561              		.loc 1 67 33 is_stmt 0 view .LVU161
 562 006a 1193     		str	r3, [sp, #68]
 563              		.loc 1 68 3 is_stmt 1 view .LVU162
 564              		.loc 1 68 7 is_stmt 0 view .LVU163
 565 006c 10A9     		add	r1, sp, #64
 566 006e 1C48     		ldr	r0, .L45
 567 0070 FFF7FEFF 		bl	HAL_TIMEx_MasterConfigSynchronization
 568              	.LVL32:
 569              		.loc 1 68 6 view .LVU164
 570 0074 58BB     		cbnz	r0, .L42
 571              	.L35:
 572              		.loc 1 72 3 is_stmt 1 view .LVU165
 573              		.loc 1 72 20 is_stmt 0 view .LVU166
 574 0076 6023     		movs	r3, #96
 575 0078 0993     		str	r3, [sp, #36]
 576              		.loc 1 73 3 is_stmt 1 view .LVU167
ARM GAS  C:\Users\VD1800~1\AppData\Local\Temp\ccDsqLwg.s 			page 11


 577              		.loc 1 73 19 is_stmt 0 view .LVU168
 578 007a 2823     		movs	r3, #40
 579 007c 0A93     		str	r3, [sp, #40]
 580              		.loc 1 74 3 is_stmt 1 view .LVU169
 581              		.loc 1 74 24 is_stmt 0 view .LVU170
 582 007e 0022     		movs	r2, #0
 583 0080 0B92     		str	r2, [sp, #44]
 584              		.loc 1 75 3 is_stmt 1 view .LVU171
 585              		.loc 1 75 25 is_stmt 0 view .LVU172
 586 0082 0C92     		str	r2, [sp, #48]
 587              		.loc 1 76 3 is_stmt 1 view .LVU173
 588              		.loc 1 76 24 is_stmt 0 view .LVU174
 589 0084 0D92     		str	r2, [sp, #52]
 590              		.loc 1 77 3 is_stmt 1 view .LVU175
 591              		.loc 1 77 25 is_stmt 0 view .LVU176
 592 0086 0E92     		str	r2, [sp, #56]
 593              		.loc 1 78 3 is_stmt 1 view .LVU177
 594              		.loc 1 78 26 is_stmt 0 view .LVU178
 595 0088 0F92     		str	r2, [sp, #60]
 596              		.loc 1 79 3 is_stmt 1 view .LVU179
 597              		.loc 1 79 7 is_stmt 0 view .LVU180
 598 008a 09A9     		add	r1, sp, #36
 599 008c 1448     		ldr	r0, .L45
 600 008e FFF7FEFF 		bl	HAL_TIM_PWM_ConfigChannel
 601              	.LVL33:
 602              		.loc 1 79 6 view .LVU181
 603 0092 F8B9     		cbnz	r0, .L43
 604              	.L36:
 605              		.loc 1 83 3 is_stmt 1 view .LVU182
 606              		.loc 1 83 40 is_stmt 0 view .LVU183
 607 0094 0023     		movs	r3, #0
 608 0096 0193     		str	r3, [sp, #4]
 609              		.loc 1 84 3 is_stmt 1 view .LVU184
 610              		.loc 1 84 41 is_stmt 0 view .LVU185
 611 0098 0293     		str	r3, [sp, #8]
 612              		.loc 1 85 3 is_stmt 1 view .LVU186
 613              		.loc 1 85 34 is_stmt 0 view .LVU187
 614 009a 0393     		str	r3, [sp, #12]
 615              		.loc 1 86 3 is_stmt 1 view .LVU188
 616              		.loc 1 86 33 is_stmt 0 view .LVU189
 617 009c 0493     		str	r3, [sp, #16]
 618              		.loc 1 87 3 is_stmt 1 view .LVU190
 619              		.loc 1 87 35 is_stmt 0 view .LVU191
 620 009e 0593     		str	r3, [sp, #20]
 621              		.loc 1 88 3 is_stmt 1 view .LVU192
 622              		.loc 1 88 38 is_stmt 0 view .LVU193
 623 00a0 4FF40052 		mov	r2, #8192
 624 00a4 0692     		str	r2, [sp, #24]
 625              		.loc 1 89 3 is_stmt 1 view .LVU194
 626              		.loc 1 89 40 is_stmt 0 view .LVU195
 627 00a6 0893     		str	r3, [sp, #32]
 628              		.loc 1 90 3 is_stmt 1 view .LVU196
 629              		.loc 1 90 7 is_stmt 0 view .LVU197
 630 00a8 01A9     		add	r1, sp, #4
 631 00aa 0D48     		ldr	r0, .L45
 632 00ac FFF7FEFF 		bl	HAL_TIMEx_ConfigBreakDeadTime
 633              	.LVL34:
ARM GAS  C:\Users\VD1800~1\AppData\Local\Temp\ccDsqLwg.s 			page 12


 634              		.loc 1 90 6 view .LVU198
 635 00b0 98B9     		cbnz	r0, .L44
 636              	.L37:
 637              		.loc 1 97 3 is_stmt 1 view .LVU199
 638 00b2 0B48     		ldr	r0, .L45
 639 00b4 FFF7FEFF 		bl	HAL_TIM_MspPostInit
 640              	.LVL35:
 641              		.loc 1 99 1 is_stmt 0 view .LVU200
 642 00b8 16B0     		add	sp, sp, #88
 643              	.LCFI14:
 644              		.cfi_remember_state
 645              		.cfi_def_cfa_offset 8
 646              		@ sp needed
 647 00ba 10BD     		pop	{r4, pc}
 648              	.L39:
 649              	.LCFI15:
 650              		.cfi_restore_state
 651              		.loc 1 55 5 is_stmt 1 view .LVU201
 652 00bc FFF7FEFF 		bl	Error_Handler
 653              	.LVL36:
 654 00c0 C3E7     		b	.L32
 655              	.L40:
 656              		.loc 1 60 5 view .LVU202
 657 00c2 FFF7FEFF 		bl	Error_Handler
 658              	.LVL37:
 659 00c6 C9E7     		b	.L33
 660              	.L41:
 661              		.loc 1 64 5 view .LVU203
 662 00c8 FFF7FEFF 		bl	Error_Handler
 663              	.LVL38:
 664 00cc CBE7     		b	.L34
 665              	.L42:
 666              		.loc 1 70 5 view .LVU204
 667 00ce FFF7FEFF 		bl	Error_Handler
 668              	.LVL39:
 669 00d2 D0E7     		b	.L35
 670              	.L43:
 671              		.loc 1 81 5 view .LVU205
 672 00d4 FFF7FEFF 		bl	Error_Handler
 673              	.LVL40:
 674 00d8 DCE7     		b	.L36
 675              	.L44:
 676              		.loc 1 92 5 view .LVU206
 677 00da FFF7FEFF 		bl	Error_Handler
 678              	.LVL41:
 679 00de E8E7     		b	.L37
 680              	.L46:
 681              		.align	2
 682              	.L45:
 683 00e0 00000000 		.word	.LANCHOR1
 684 00e4 002C0140 		.word	1073818624
 685              		.cfi_endproc
 686              	.LFE65:
 688              		.section	.text.HAL_TIM_Base_MspDeInit,"ax",%progbits
 689              		.align	1
 690              		.global	HAL_TIM_Base_MspDeInit
 691              		.syntax unified
ARM GAS  C:\Users\VD1800~1\AppData\Local\Temp\ccDsqLwg.s 			page 13


 692              		.thumb
 693              		.thumb_func
 694              		.fpu softvfp
 696              	HAL_TIM_Base_MspDeInit:
 697              	.LVL42:
 698              	.LFB69:
 699              		.loc 1 231 1 view -0
 700              		.cfi_startproc
 701              		@ args = 0, pretend = 0, frame = 0
 702              		@ frame_needed = 0, uses_anonymous_args = 0
 703              		.loc 1 231 1 is_stmt 0 view .LVU208
 704 0000 08B5     		push	{r3, lr}
 705              	.LCFI16:
 706              		.cfi_def_cfa_offset 8
 707              		.cfi_offset 3, -8
 708              		.cfi_offset 14, -4
 709              		.loc 1 233 3 is_stmt 1 view .LVU209
 710              		.loc 1 233 20 is_stmt 0 view .LVU210
 711 0002 0368     		ldr	r3, [r0]
 712              		.loc 1 233 5 view .LVU211
 713 0004 0F4A     		ldr	r2, .L53
 714 0006 9342     		cmp	r3, r2
 715 0008 03D0     		beq	.L51
 716              		.loc 1 247 8 is_stmt 1 view .LVU212
 717              		.loc 1 247 10 is_stmt 0 view .LVU213
 718 000a 0F4A     		ldr	r2, .L53+4
 719 000c 9342     		cmp	r3, r2
 720 000e 0AD0     		beq	.L52
 721              	.LVL43:
 722              	.L47:
 723              		.loc 1 267 1 view .LVU214
 724 0010 08BD     		pop	{r3, pc}
 725              	.LVL44:
 726              	.L51:
 727              		.loc 1 239 5 is_stmt 1 view .LVU215
 728 0012 02F56442 		add	r2, r2, #58368
 729 0016 9369     		ldr	r3, [r2, #24]
 730 0018 23F40063 		bic	r3, r3, #2048
 731 001c 9361     		str	r3, [r2, #24]
 732              		.loc 1 242 5 view .LVU216
 733 001e 1920     		movs	r0, #25
 734              	.LVL45:
 735              		.loc 1 242 5 is_stmt 0 view .LVU217
 736 0020 FFF7FEFF 		bl	HAL_NVIC_DisableIRQ
 737              	.LVL46:
 738 0024 F4E7     		b	.L47
 739              	.LVL47:
 740              	.L52:
 741              		.loc 1 253 5 is_stmt 1 view .LVU218
 742 0026 02F50332 		add	r2, r2, #134144
 743 002a D369     		ldr	r3, [r2, #28]
 744 002c 23F00203 		bic	r3, r3, #2
 745 0030 D361     		str	r3, [r2, #28]
 746              		.loc 1 259 5 view .LVU219
 747 0032 C021     		movs	r1, #192
 748 0034 0548     		ldr	r0, .L53+8
 749              	.LVL48:
ARM GAS  C:\Users\VD1800~1\AppData\Local\Temp\ccDsqLwg.s 			page 14


 750              		.loc 1 259 5 is_stmt 0 view .LVU220
 751 0036 FFF7FEFF 		bl	HAL_GPIO_DeInit
 752              	.LVL49:
 753              		.loc 1 262 5 is_stmt 1 view .LVU221
 754 003a 1D20     		movs	r0, #29
 755 003c FFF7FEFF 		bl	HAL_NVIC_DisableIRQ
 756              	.LVL50:
 757              		.loc 1 267 1 is_stmt 0 view .LVU222
 758 0040 E6E7     		b	.L47
 759              	.L54:
 760 0042 00BF     		.align	2
 761              	.L53:
 762 0044 002C0140 		.word	1073818624
 763 0048 00040040 		.word	1073742848
 764 004c 00080140 		.word	1073809408
 765              		.cfi_endproc
 766              	.LFE69:
 768              		.global	htim3
 769              		.global	htim1
 770              		.section	.bss.htim1,"aw",%nobits
 771              		.align	2
 772              		.set	.LANCHOR1,. + 0
 775              	htim1:
 776 0000 00000000 		.space	72
 776      00000000 
 776      00000000 
 776      00000000 
 776      00000000 
 777              		.section	.bss.htim3,"aw",%nobits
 778              		.align	2
 779              		.set	.LANCHOR0,. + 0
 782              	htim3:
 783 0000 00000000 		.space	72
 783      00000000 
 783      00000000 
 783      00000000 
 783      00000000 
 784              		.text
 785              	.Letext0:
 786              		.file 2 "../c:\\users\\vd180005d\\desktop\\mips\\gnu mcu\\arm-none-eabi-gcc-10.2.1-1.1\\arm-none-e
 787              		.file 3 "../c:\\users\\vd180005d\\desktop\\mips\\gnu mcu\\arm-none-eabi-gcc-10.2.1-1.1\\arm-none-e
 788              		.file 4 "../Drivers/CMSIS/Device/ST/STM32F1xx/Include/stm32f103x6.h"
 789              		.file 5 "../Drivers/STM32F1xx_HAL_Driver/Inc/stm32f1xx_hal_def.h"
 790              		.file 6 "../Drivers/STM32F1xx_HAL_Driver/Inc/stm32f1xx_hal_gpio.h"
 791              		.file 7 "../Drivers/STM32F1xx_HAL_Driver/Inc/stm32f1xx_hal_dma.h"
 792              		.file 8 "../Drivers/STM32F1xx_HAL_Driver/Inc/stm32f1xx_hal_tim.h"
 793              		.file 9 "../Core/Inc/tim.h"
 794              		.file 10 "../Drivers/STM32F1xx_HAL_Driver/Inc/stm32f1xx_hal_cortex.h"
 795              		.file 11 "../Drivers/STM32F1xx_HAL_Driver/Inc/stm32f1xx_hal_tim_ex.h"
 796              		.file 12 "../Core/Inc/main.h"
 797              		.file 13 "../<built-in>"
ARM GAS  C:\Users\VD1800~1\AppData\Local\Temp\ccDsqLwg.s 			page 15

